ARM GAS  /tmp/ccsVPAmO.s 			page 1


   1              		.cpu cortex-m0
   2              		.eabi_attribute 20, 1
   3              		.eabi_attribute 21, 1
   4              		.eabi_attribute 23, 3
   5              		.eabi_attribute 24, 1
   6              		.eabi_attribute 25, 1
   7              		.eabi_attribute 26, 1
   8              		.eabi_attribute 30, 4
   9              		.eabi_attribute 34, 0
  10              		.eabi_attribute 18, 4
  11              		.file	"main.cpp"
  12              		.text
  13              	.Ltext0:
  14              		.cfi_sections	.debug_frame
  15              		.section	.text.NVIC_EnableIRQ,"ax",%progbits
  16              		.align	1
  17              		.syntax unified
  18              		.code	16
  19              		.thumb_func
  20              		.fpu softvfp
  22              	NVIC_EnableIRQ:
  23              	.LFB45:
  24              		.file 1 "../mculib3/STM32F0_files/CMSIS/core_cm0.h"
   1:../mculib3/STM32F0_files/CMSIS/core_cm0.h **** /**************************************************************************//**
   2:../mculib3/STM32F0_files/CMSIS/core_cm0.h ****  * @file     core_cm0.h
   3:../mculib3/STM32F0_files/CMSIS/core_cm0.h ****  * @brief    CMSIS Cortex-M0 Core Peripheral Access Layer Header File
   4:../mculib3/STM32F0_files/CMSIS/core_cm0.h ****  * @version  V4.30
   5:../mculib3/STM32F0_files/CMSIS/core_cm0.h ****  * @date     20. October 2015
   6:../mculib3/STM32F0_files/CMSIS/core_cm0.h ****  ******************************************************************************/
   7:../mculib3/STM32F0_files/CMSIS/core_cm0.h **** /* Copyright (c) 2009 - 2015 ARM LIMITED
   8:../mculib3/STM32F0_files/CMSIS/core_cm0.h **** 
   9:../mculib3/STM32F0_files/CMSIS/core_cm0.h ****    All rights reserved.
  10:../mculib3/STM32F0_files/CMSIS/core_cm0.h ****    Redistribution and use in source and binary forms, with or without
  11:../mculib3/STM32F0_files/CMSIS/core_cm0.h ****    modification, are permitted provided that the following conditions are met:
  12:../mculib3/STM32F0_files/CMSIS/core_cm0.h ****    - Redistributions of source code must retain the above copyright
  13:../mculib3/STM32F0_files/CMSIS/core_cm0.h ****      notice, this list of conditions and the following disclaimer.
  14:../mculib3/STM32F0_files/CMSIS/core_cm0.h ****    - Redistributions in binary form must reproduce the above copyright
  15:../mculib3/STM32F0_files/CMSIS/core_cm0.h ****      notice, this list of conditions and the following disclaimer in the
  16:../mculib3/STM32F0_files/CMSIS/core_cm0.h ****      documentation and/or other materials provided with the distribution.
  17:../mculib3/STM32F0_files/CMSIS/core_cm0.h ****    - Neither the name of ARM nor the names of its contributors may be used
  18:../mculib3/STM32F0_files/CMSIS/core_cm0.h ****      to endorse or promote products derived from this software without
  19:../mculib3/STM32F0_files/CMSIS/core_cm0.h ****      specific prior written permission.
  20:../mculib3/STM32F0_files/CMSIS/core_cm0.h ****    *
  21:../mculib3/STM32F0_files/CMSIS/core_cm0.h ****    THIS SOFTWARE IS PROVIDED BY THE COPYRIGHT HOLDERS AND CONTRIBUTORS "AS IS"
  22:../mculib3/STM32F0_files/CMSIS/core_cm0.h ****    AND ANY EXPRESS OR IMPLIED WARRANTIES, INCLUDING, BUT NOT LIMITED TO, THE
  23:../mculib3/STM32F0_files/CMSIS/core_cm0.h ****    IMPLIED WARRANTIES OF MERCHANTABILITY AND FITNESS FOR A PARTICULAR PURPOSE
  24:../mculib3/STM32F0_files/CMSIS/core_cm0.h ****    ARE DISCLAIMED. IN NO EVENT SHALL COPYRIGHT HOLDERS AND CONTRIBUTORS BE
  25:../mculib3/STM32F0_files/CMSIS/core_cm0.h ****    LIABLE FOR ANY DIRECT, INDIRECT, INCIDENTAL, SPECIAL, EXEMPLARY, OR
  26:../mculib3/STM32F0_files/CMSIS/core_cm0.h ****    CONSEQUENTIAL DAMAGES (INCLUDING, BUT NOT LIMITED TO, PROCUREMENT OF
  27:../mculib3/STM32F0_files/CMSIS/core_cm0.h ****    SUBSTITUTE GOODS OR SERVICES; LOSS OF USE, DATA, OR PROFITS; OR BUSINESS
  28:../mculib3/STM32F0_files/CMSIS/core_cm0.h ****    INTERRUPTION) HOWEVER CAUSED AND ON ANY THEORY OF LIABILITY, WHETHER IN
  29:../mculib3/STM32F0_files/CMSIS/core_cm0.h ****    CONTRACT, STRICT LIABILITY, OR TORT (INCLUDING NEGLIGENCE OR OTHERWISE)
  30:../mculib3/STM32F0_files/CMSIS/core_cm0.h ****    ARISING IN ANY WAY OUT OF THE USE OF THIS SOFTWARE, EVEN IF ADVISED OF THE
  31:../mculib3/STM32F0_files/CMSIS/core_cm0.h ****    POSSIBILITY OF SUCH DAMAGE.
  32:../mculib3/STM32F0_files/CMSIS/core_cm0.h ****    ---------------------------------------------------------------------------*/
  33:../mculib3/STM32F0_files/CMSIS/core_cm0.h **** 
  34:../mculib3/STM32F0_files/CMSIS/core_cm0.h **** 
ARM GAS  /tmp/ccsVPAmO.s 			page 2


  35:../mculib3/STM32F0_files/CMSIS/core_cm0.h **** #if   defined ( __ICCARM__ )
  36:../mculib3/STM32F0_files/CMSIS/core_cm0.h ****  #pragma system_include         /* treat file as system include file for MISRA check */
  37:../mculib3/STM32F0_files/CMSIS/core_cm0.h **** #elif defined(__ARMCC_VERSION) && (__ARMCC_VERSION >= 6010050)
  38:../mculib3/STM32F0_files/CMSIS/core_cm0.h ****   #pragma clang system_header   /* treat file as system include file */
  39:../mculib3/STM32F0_files/CMSIS/core_cm0.h **** #endif
  40:../mculib3/STM32F0_files/CMSIS/core_cm0.h **** 
  41:../mculib3/STM32F0_files/CMSIS/core_cm0.h **** #ifndef __CORE_CM0_H_GENERIC
  42:../mculib3/STM32F0_files/CMSIS/core_cm0.h **** #define __CORE_CM0_H_GENERIC
  43:../mculib3/STM32F0_files/CMSIS/core_cm0.h **** 
  44:../mculib3/STM32F0_files/CMSIS/core_cm0.h **** #include <stdint.h>
  45:../mculib3/STM32F0_files/CMSIS/core_cm0.h **** 
  46:../mculib3/STM32F0_files/CMSIS/core_cm0.h **** #ifdef __cplusplus
  47:../mculib3/STM32F0_files/CMSIS/core_cm0.h ****  extern "C" {
  48:../mculib3/STM32F0_files/CMSIS/core_cm0.h **** #endif
  49:../mculib3/STM32F0_files/CMSIS/core_cm0.h **** 
  50:../mculib3/STM32F0_files/CMSIS/core_cm0.h **** /**
  51:../mculib3/STM32F0_files/CMSIS/core_cm0.h ****   \page CMSIS_MISRA_Exceptions  MISRA-C:2004 Compliance Exceptions
  52:../mculib3/STM32F0_files/CMSIS/core_cm0.h ****   CMSIS violates the following MISRA-C:2004 rules:
  53:../mculib3/STM32F0_files/CMSIS/core_cm0.h **** 
  54:../mculib3/STM32F0_files/CMSIS/core_cm0.h ****    \li Required Rule 8.5, object/function definition in header file.<br>
  55:../mculib3/STM32F0_files/CMSIS/core_cm0.h ****      Function definitions in header files are used to allow 'inlining'.
  56:../mculib3/STM32F0_files/CMSIS/core_cm0.h **** 
  57:../mculib3/STM32F0_files/CMSIS/core_cm0.h ****    \li Required Rule 18.4, declaration of union type or object of union type: '{...}'.<br>
  58:../mculib3/STM32F0_files/CMSIS/core_cm0.h ****      Unions are used for effective representation of core registers.
  59:../mculib3/STM32F0_files/CMSIS/core_cm0.h **** 
  60:../mculib3/STM32F0_files/CMSIS/core_cm0.h ****    \li Advisory Rule 19.7, Function-like macro defined.<br>
  61:../mculib3/STM32F0_files/CMSIS/core_cm0.h ****      Function-like macros are used to allow more efficient code.
  62:../mculib3/STM32F0_files/CMSIS/core_cm0.h ****  */
  63:../mculib3/STM32F0_files/CMSIS/core_cm0.h **** 
  64:../mculib3/STM32F0_files/CMSIS/core_cm0.h **** 
  65:../mculib3/STM32F0_files/CMSIS/core_cm0.h **** /*******************************************************************************
  66:../mculib3/STM32F0_files/CMSIS/core_cm0.h ****  *                 CMSIS definitions
  67:../mculib3/STM32F0_files/CMSIS/core_cm0.h ****  ******************************************************************************/
  68:../mculib3/STM32F0_files/CMSIS/core_cm0.h **** /**
  69:../mculib3/STM32F0_files/CMSIS/core_cm0.h ****   \ingroup Cortex_M0
  70:../mculib3/STM32F0_files/CMSIS/core_cm0.h ****   @{
  71:../mculib3/STM32F0_files/CMSIS/core_cm0.h ****  */
  72:../mculib3/STM32F0_files/CMSIS/core_cm0.h **** 
  73:../mculib3/STM32F0_files/CMSIS/core_cm0.h **** /*  CMSIS CM0 definitions */
  74:../mculib3/STM32F0_files/CMSIS/core_cm0.h **** #define __CM0_CMSIS_VERSION_MAIN  (0x04U)                                      /*!< [31:16] CMSIS H
  75:../mculib3/STM32F0_files/CMSIS/core_cm0.h **** #define __CM0_CMSIS_VERSION_SUB   (0x1EU)                                      /*!< [15:0]  CMSIS H
  76:../mculib3/STM32F0_files/CMSIS/core_cm0.h **** #define __CM0_CMSIS_VERSION       ((__CM0_CMSIS_VERSION_MAIN << 16U) | \
  77:../mculib3/STM32F0_files/CMSIS/core_cm0.h ****                                     __CM0_CMSIS_VERSION_SUB           )        /*!< CMSIS HAL versi
  78:../mculib3/STM32F0_files/CMSIS/core_cm0.h **** 
  79:../mculib3/STM32F0_files/CMSIS/core_cm0.h **** #define __CORTEX_M                (0x00U)                                      /*!< Cortex-M Core *
  80:../mculib3/STM32F0_files/CMSIS/core_cm0.h **** 
  81:../mculib3/STM32F0_files/CMSIS/core_cm0.h **** 
  82:../mculib3/STM32F0_files/CMSIS/core_cm0.h **** #if   defined ( __CC_ARM )
  83:../mculib3/STM32F0_files/CMSIS/core_cm0.h ****   #define __ASM            __asm                                      /*!< asm keyword for ARM Comp
  84:../mculib3/STM32F0_files/CMSIS/core_cm0.h ****   #define __INLINE         __inline                                   /*!< inline keyword for ARM C
  85:../mculib3/STM32F0_files/CMSIS/core_cm0.h ****   #define __STATIC_INLINE  static __inline
  86:../mculib3/STM32F0_files/CMSIS/core_cm0.h **** 
  87:../mculib3/STM32F0_files/CMSIS/core_cm0.h **** #elif defined(__ARMCC_VERSION) && (__ARMCC_VERSION >= 6010050)
  88:../mculib3/STM32F0_files/CMSIS/core_cm0.h ****   #define __ASM            __asm                                      /*!< asm keyword for ARM Comp
  89:../mculib3/STM32F0_files/CMSIS/core_cm0.h ****   #define __INLINE         __inline                                   /*!< inline keyword for ARM C
  90:../mculib3/STM32F0_files/CMSIS/core_cm0.h ****   #define __STATIC_INLINE  static __inline
  91:../mculib3/STM32F0_files/CMSIS/core_cm0.h **** 
ARM GAS  /tmp/ccsVPAmO.s 			page 3


  92:../mculib3/STM32F0_files/CMSIS/core_cm0.h **** #elif defined ( __GNUC__ )
  93:../mculib3/STM32F0_files/CMSIS/core_cm0.h ****   #define __ASM            __asm                                      /*!< asm keyword for GNU Comp
  94:../mculib3/STM32F0_files/CMSIS/core_cm0.h ****   #define __INLINE         inline                                     /*!< inline keyword for GNU C
  95:../mculib3/STM32F0_files/CMSIS/core_cm0.h ****   #define __STATIC_INLINE  static inline
  96:../mculib3/STM32F0_files/CMSIS/core_cm0.h **** 
  97:../mculib3/STM32F0_files/CMSIS/core_cm0.h **** #elif defined ( __ICCARM__ )
  98:../mculib3/STM32F0_files/CMSIS/core_cm0.h ****   #define __ASM            __asm                                      /*!< asm keyword for IAR Comp
  99:../mculib3/STM32F0_files/CMSIS/core_cm0.h ****   #define __INLINE         inline                                     /*!< inline keyword for IAR C
 100:../mculib3/STM32F0_files/CMSIS/core_cm0.h ****   #define __STATIC_INLINE  static inline
 101:../mculib3/STM32F0_files/CMSIS/core_cm0.h **** 
 102:../mculib3/STM32F0_files/CMSIS/core_cm0.h **** #elif defined ( __TMS470__ )
 103:../mculib3/STM32F0_files/CMSIS/core_cm0.h ****   #define __ASM            __asm                                      /*!< asm keyword for TI CCS C
 104:../mculib3/STM32F0_files/CMSIS/core_cm0.h ****   #define __STATIC_INLINE  static inline
 105:../mculib3/STM32F0_files/CMSIS/core_cm0.h **** 
 106:../mculib3/STM32F0_files/CMSIS/core_cm0.h **** #elif defined ( __TASKING__ )
 107:../mculib3/STM32F0_files/CMSIS/core_cm0.h ****   #define __ASM            __asm                                      /*!< asm keyword for TASKING 
 108:../mculib3/STM32F0_files/CMSIS/core_cm0.h ****   #define __INLINE         inline                                     /*!< inline keyword for TASKI
 109:../mculib3/STM32F0_files/CMSIS/core_cm0.h ****   #define __STATIC_INLINE  static inline
 110:../mculib3/STM32F0_files/CMSIS/core_cm0.h **** 
 111:../mculib3/STM32F0_files/CMSIS/core_cm0.h **** #elif defined ( __CSMC__ )
 112:../mculib3/STM32F0_files/CMSIS/core_cm0.h ****   #define __packed
 113:../mculib3/STM32F0_files/CMSIS/core_cm0.h ****   #define __ASM            _asm                                      /*!< asm keyword for COSMIC Co
 114:../mculib3/STM32F0_files/CMSIS/core_cm0.h ****   #define __INLINE         inline                                    /*!< inline keyword for COSMIC
 115:../mculib3/STM32F0_files/CMSIS/core_cm0.h ****   #define __STATIC_INLINE  static inline
 116:../mculib3/STM32F0_files/CMSIS/core_cm0.h **** 
 117:../mculib3/STM32F0_files/CMSIS/core_cm0.h **** #else
 118:../mculib3/STM32F0_files/CMSIS/core_cm0.h ****   #error Unknown compiler
 119:../mculib3/STM32F0_files/CMSIS/core_cm0.h **** #endif
 120:../mculib3/STM32F0_files/CMSIS/core_cm0.h **** 
 121:../mculib3/STM32F0_files/CMSIS/core_cm0.h **** /** __FPU_USED indicates whether an FPU is used or not.
 122:../mculib3/STM32F0_files/CMSIS/core_cm0.h ****     This core does not support an FPU at all
 123:../mculib3/STM32F0_files/CMSIS/core_cm0.h **** */
 124:../mculib3/STM32F0_files/CMSIS/core_cm0.h **** #define __FPU_USED       0U
 125:../mculib3/STM32F0_files/CMSIS/core_cm0.h **** 
 126:../mculib3/STM32F0_files/CMSIS/core_cm0.h **** #if defined ( __CC_ARM )
 127:../mculib3/STM32F0_files/CMSIS/core_cm0.h ****   #if defined __TARGET_FPU_VFP
 128:../mculib3/STM32F0_files/CMSIS/core_cm0.h ****     #error "Compiler generates FPU instructions for a device without an FPU (check __FPU_PRESENT)"
 129:../mculib3/STM32F0_files/CMSIS/core_cm0.h ****   #endif
 130:../mculib3/STM32F0_files/CMSIS/core_cm0.h **** 
 131:../mculib3/STM32F0_files/CMSIS/core_cm0.h **** #elif defined(__ARMCC_VERSION) && (__ARMCC_VERSION >= 6010050)
 132:../mculib3/STM32F0_files/CMSIS/core_cm0.h ****   #if defined __ARM_PCS_VFP
 133:../mculib3/STM32F0_files/CMSIS/core_cm0.h ****     #error "Compiler generates FPU instructions for a device without an FPU (check __FPU_PRESENT)"
 134:../mculib3/STM32F0_files/CMSIS/core_cm0.h ****   #endif
 135:../mculib3/STM32F0_files/CMSIS/core_cm0.h **** 
 136:../mculib3/STM32F0_files/CMSIS/core_cm0.h **** #elif defined ( __GNUC__ )
 137:../mculib3/STM32F0_files/CMSIS/core_cm0.h ****   #if defined (__VFP_FP__) && !defined(__SOFTFP__)
 138:../mculib3/STM32F0_files/CMSIS/core_cm0.h ****     #error "Compiler generates FPU instructions for a device without an FPU (check __FPU_PRESENT)"
 139:../mculib3/STM32F0_files/CMSIS/core_cm0.h ****   #endif
 140:../mculib3/STM32F0_files/CMSIS/core_cm0.h **** 
 141:../mculib3/STM32F0_files/CMSIS/core_cm0.h **** #elif defined ( __ICCARM__ )
 142:../mculib3/STM32F0_files/CMSIS/core_cm0.h ****   #if defined __ARMVFP__
 143:../mculib3/STM32F0_files/CMSIS/core_cm0.h ****     #error "Compiler generates FPU instructions for a device without an FPU (check __FPU_PRESENT)"
 144:../mculib3/STM32F0_files/CMSIS/core_cm0.h ****   #endif
 145:../mculib3/STM32F0_files/CMSIS/core_cm0.h **** 
 146:../mculib3/STM32F0_files/CMSIS/core_cm0.h **** #elif defined ( __TMS470__ )
 147:../mculib3/STM32F0_files/CMSIS/core_cm0.h ****   #if defined __TI_VFP_SUPPORT__
 148:../mculib3/STM32F0_files/CMSIS/core_cm0.h ****     #error "Compiler generates FPU instructions for a device without an FPU (check __FPU_PRESENT)"
ARM GAS  /tmp/ccsVPAmO.s 			page 4


 149:../mculib3/STM32F0_files/CMSIS/core_cm0.h ****   #endif
 150:../mculib3/STM32F0_files/CMSIS/core_cm0.h **** 
 151:../mculib3/STM32F0_files/CMSIS/core_cm0.h **** #elif defined ( __TASKING__ )
 152:../mculib3/STM32F0_files/CMSIS/core_cm0.h ****   #if defined __FPU_VFP__
 153:../mculib3/STM32F0_files/CMSIS/core_cm0.h ****     #error "Compiler generates FPU instructions for a device without an FPU (check __FPU_PRESENT)"
 154:../mculib3/STM32F0_files/CMSIS/core_cm0.h ****   #endif
 155:../mculib3/STM32F0_files/CMSIS/core_cm0.h **** 
 156:../mculib3/STM32F0_files/CMSIS/core_cm0.h **** #elif defined ( __CSMC__ )
 157:../mculib3/STM32F0_files/CMSIS/core_cm0.h ****   #if ( __CSMC__ & 0x400U)
 158:../mculib3/STM32F0_files/CMSIS/core_cm0.h ****     #error "Compiler generates FPU instructions for a device without an FPU (check __FPU_PRESENT)"
 159:../mculib3/STM32F0_files/CMSIS/core_cm0.h ****   #endif
 160:../mculib3/STM32F0_files/CMSIS/core_cm0.h **** 
 161:../mculib3/STM32F0_files/CMSIS/core_cm0.h **** #endif
 162:../mculib3/STM32F0_files/CMSIS/core_cm0.h **** 
 163:../mculib3/STM32F0_files/CMSIS/core_cm0.h **** #include "core_cmInstr.h"                /* Core Instruction Access */
 164:../mculib3/STM32F0_files/CMSIS/core_cm0.h **** #include "core_cmFunc.h"                 /* Core Function Access */
 165:../mculib3/STM32F0_files/CMSIS/core_cm0.h **** 
 166:../mculib3/STM32F0_files/CMSIS/core_cm0.h **** #ifdef __cplusplus
 167:../mculib3/STM32F0_files/CMSIS/core_cm0.h **** }
 168:../mculib3/STM32F0_files/CMSIS/core_cm0.h **** #endif
 169:../mculib3/STM32F0_files/CMSIS/core_cm0.h **** 
 170:../mculib3/STM32F0_files/CMSIS/core_cm0.h **** #endif /* __CORE_CM0_H_GENERIC */
 171:../mculib3/STM32F0_files/CMSIS/core_cm0.h **** 
 172:../mculib3/STM32F0_files/CMSIS/core_cm0.h **** #ifndef __CMSIS_GENERIC
 173:../mculib3/STM32F0_files/CMSIS/core_cm0.h **** 
 174:../mculib3/STM32F0_files/CMSIS/core_cm0.h **** #ifndef __CORE_CM0_H_DEPENDANT
 175:../mculib3/STM32F0_files/CMSIS/core_cm0.h **** #define __CORE_CM0_H_DEPENDANT
 176:../mculib3/STM32F0_files/CMSIS/core_cm0.h **** 
 177:../mculib3/STM32F0_files/CMSIS/core_cm0.h **** #ifdef __cplusplus
 178:../mculib3/STM32F0_files/CMSIS/core_cm0.h ****  extern "C" {
 179:../mculib3/STM32F0_files/CMSIS/core_cm0.h **** #endif
 180:../mculib3/STM32F0_files/CMSIS/core_cm0.h **** 
 181:../mculib3/STM32F0_files/CMSIS/core_cm0.h **** /* check device defines and use defaults */
 182:../mculib3/STM32F0_files/CMSIS/core_cm0.h **** #if defined __CHECK_DEVICE_DEFINES
 183:../mculib3/STM32F0_files/CMSIS/core_cm0.h ****   #ifndef __CM0_REV
 184:../mculib3/STM32F0_files/CMSIS/core_cm0.h ****     #define __CM0_REV               0x0000U
 185:../mculib3/STM32F0_files/CMSIS/core_cm0.h ****     #warning "__CM0_REV not defined in device header file; using default!"
 186:../mculib3/STM32F0_files/CMSIS/core_cm0.h ****   #endif
 187:../mculib3/STM32F0_files/CMSIS/core_cm0.h **** 
 188:../mculib3/STM32F0_files/CMSIS/core_cm0.h ****   #ifndef __NVIC_PRIO_BITS
 189:../mculib3/STM32F0_files/CMSIS/core_cm0.h ****     #define __NVIC_PRIO_BITS          2U
 190:../mculib3/STM32F0_files/CMSIS/core_cm0.h ****     #warning "__NVIC_PRIO_BITS not defined in device header file; using default!"
 191:../mculib3/STM32F0_files/CMSIS/core_cm0.h ****   #endif
 192:../mculib3/STM32F0_files/CMSIS/core_cm0.h **** 
 193:../mculib3/STM32F0_files/CMSIS/core_cm0.h ****   #ifndef __Vendor_SysTickConfig
 194:../mculib3/STM32F0_files/CMSIS/core_cm0.h ****     #define __Vendor_SysTickConfig    0U
 195:../mculib3/STM32F0_files/CMSIS/core_cm0.h ****     #warning "__Vendor_SysTickConfig not defined in device header file; using default!"
 196:../mculib3/STM32F0_files/CMSIS/core_cm0.h ****   #endif
 197:../mculib3/STM32F0_files/CMSIS/core_cm0.h **** #endif
 198:../mculib3/STM32F0_files/CMSIS/core_cm0.h **** 
 199:../mculib3/STM32F0_files/CMSIS/core_cm0.h **** /* IO definitions (access restrictions to peripheral registers) */
 200:../mculib3/STM32F0_files/CMSIS/core_cm0.h **** /**
 201:../mculib3/STM32F0_files/CMSIS/core_cm0.h ****     \defgroup CMSIS_glob_defs CMSIS Global Defines
 202:../mculib3/STM32F0_files/CMSIS/core_cm0.h **** 
 203:../mculib3/STM32F0_files/CMSIS/core_cm0.h ****     <strong>IO Type Qualifiers</strong> are used
 204:../mculib3/STM32F0_files/CMSIS/core_cm0.h ****     \li to specify the access to peripheral variables.
 205:../mculib3/STM32F0_files/CMSIS/core_cm0.h ****     \li for automatic generation of peripheral register debug information.
ARM GAS  /tmp/ccsVPAmO.s 			page 5


 206:../mculib3/STM32F0_files/CMSIS/core_cm0.h **** */
 207:../mculib3/STM32F0_files/CMSIS/core_cm0.h **** #ifdef __cplusplus
 208:../mculib3/STM32F0_files/CMSIS/core_cm0.h ****   #define   __I     volatile             /*!< Defines 'read only' permissions */
 209:../mculib3/STM32F0_files/CMSIS/core_cm0.h **** #else
 210:../mculib3/STM32F0_files/CMSIS/core_cm0.h ****   #define   __I     volatile const       /*!< Defines 'read only' permissions */
 211:../mculib3/STM32F0_files/CMSIS/core_cm0.h **** #endif
 212:../mculib3/STM32F0_files/CMSIS/core_cm0.h **** #define     __O     volatile             /*!< Defines 'write only' permissions */
 213:../mculib3/STM32F0_files/CMSIS/core_cm0.h **** #define     __IO    volatile             /*!< Defines 'read / write' permissions */
 214:../mculib3/STM32F0_files/CMSIS/core_cm0.h **** 
 215:../mculib3/STM32F0_files/CMSIS/core_cm0.h **** /* following defines should be used for structure members */
 216:../mculib3/STM32F0_files/CMSIS/core_cm0.h **** #define     __IM     volatile const      /*! Defines 'read only' structure member permissions */
 217:../mculib3/STM32F0_files/CMSIS/core_cm0.h **** #define     __OM     volatile            /*! Defines 'write only' structure member permissions */
 218:../mculib3/STM32F0_files/CMSIS/core_cm0.h **** #define     __IOM    volatile            /*! Defines 'read / write' structure member permissions */
 219:../mculib3/STM32F0_files/CMSIS/core_cm0.h **** 
 220:../mculib3/STM32F0_files/CMSIS/core_cm0.h **** /*@} end of group Cortex_M0 */
 221:../mculib3/STM32F0_files/CMSIS/core_cm0.h **** 
 222:../mculib3/STM32F0_files/CMSIS/core_cm0.h **** 
 223:../mculib3/STM32F0_files/CMSIS/core_cm0.h **** 
 224:../mculib3/STM32F0_files/CMSIS/core_cm0.h **** /*******************************************************************************
 225:../mculib3/STM32F0_files/CMSIS/core_cm0.h ****  *                 Register Abstraction
 226:../mculib3/STM32F0_files/CMSIS/core_cm0.h ****   Core Register contain:
 227:../mculib3/STM32F0_files/CMSIS/core_cm0.h ****   - Core Register
 228:../mculib3/STM32F0_files/CMSIS/core_cm0.h ****   - Core NVIC Register
 229:../mculib3/STM32F0_files/CMSIS/core_cm0.h ****   - Core SCB Register
 230:../mculib3/STM32F0_files/CMSIS/core_cm0.h ****   - Core SysTick Register
 231:../mculib3/STM32F0_files/CMSIS/core_cm0.h ****  ******************************************************************************/
 232:../mculib3/STM32F0_files/CMSIS/core_cm0.h **** /**
 233:../mculib3/STM32F0_files/CMSIS/core_cm0.h ****   \defgroup CMSIS_core_register Defines and Type Definitions
 234:../mculib3/STM32F0_files/CMSIS/core_cm0.h ****   \brief Type definitions and defines for Cortex-M processor based devices.
 235:../mculib3/STM32F0_files/CMSIS/core_cm0.h **** */
 236:../mculib3/STM32F0_files/CMSIS/core_cm0.h **** 
 237:../mculib3/STM32F0_files/CMSIS/core_cm0.h **** /**
 238:../mculib3/STM32F0_files/CMSIS/core_cm0.h ****   \ingroup    CMSIS_core_register
 239:../mculib3/STM32F0_files/CMSIS/core_cm0.h ****   \defgroup   CMSIS_CORE  Status and Control Registers
 240:../mculib3/STM32F0_files/CMSIS/core_cm0.h ****   \brief      Core Register type definitions.
 241:../mculib3/STM32F0_files/CMSIS/core_cm0.h ****   @{
 242:../mculib3/STM32F0_files/CMSIS/core_cm0.h ****  */
 243:../mculib3/STM32F0_files/CMSIS/core_cm0.h **** 
 244:../mculib3/STM32F0_files/CMSIS/core_cm0.h **** /**
 245:../mculib3/STM32F0_files/CMSIS/core_cm0.h ****   \brief  Union type to access the Application Program Status Register (APSR).
 246:../mculib3/STM32F0_files/CMSIS/core_cm0.h ****  */
 247:../mculib3/STM32F0_files/CMSIS/core_cm0.h **** typedef union
 248:../mculib3/STM32F0_files/CMSIS/core_cm0.h **** {
 249:../mculib3/STM32F0_files/CMSIS/core_cm0.h ****   struct
 250:../mculib3/STM32F0_files/CMSIS/core_cm0.h ****   {
 251:../mculib3/STM32F0_files/CMSIS/core_cm0.h ****     uint32_t _reserved0:28;              /*!< bit:  0..27  Reserved */
 252:../mculib3/STM32F0_files/CMSIS/core_cm0.h ****     uint32_t V:1;                        /*!< bit:     28  Overflow condition code flag */
 253:../mculib3/STM32F0_files/CMSIS/core_cm0.h ****     uint32_t C:1;                        /*!< bit:     29  Carry condition code flag */
 254:../mculib3/STM32F0_files/CMSIS/core_cm0.h ****     uint32_t Z:1;                        /*!< bit:     30  Zero condition code flag */
 255:../mculib3/STM32F0_files/CMSIS/core_cm0.h ****     uint32_t N:1;                        /*!< bit:     31  Negative condition code flag */
 256:../mculib3/STM32F0_files/CMSIS/core_cm0.h ****   } b;                                   /*!< Structure used for bit  access */
 257:../mculib3/STM32F0_files/CMSIS/core_cm0.h ****   uint32_t w;                            /*!< Type      used for word access */
 258:../mculib3/STM32F0_files/CMSIS/core_cm0.h **** } APSR_Type;
 259:../mculib3/STM32F0_files/CMSIS/core_cm0.h **** 
 260:../mculib3/STM32F0_files/CMSIS/core_cm0.h **** /* APSR Register Definitions */
 261:../mculib3/STM32F0_files/CMSIS/core_cm0.h **** #define APSR_N_Pos                         31U                                            /*!< APSR
 262:../mculib3/STM32F0_files/CMSIS/core_cm0.h **** #define APSR_N_Msk                         (1UL << APSR_N_Pos)                            /*!< APSR
ARM GAS  /tmp/ccsVPAmO.s 			page 6


 263:../mculib3/STM32F0_files/CMSIS/core_cm0.h **** 
 264:../mculib3/STM32F0_files/CMSIS/core_cm0.h **** #define APSR_Z_Pos                         30U                                            /*!< APSR
 265:../mculib3/STM32F0_files/CMSIS/core_cm0.h **** #define APSR_Z_Msk                         (1UL << APSR_Z_Pos)                            /*!< APSR
 266:../mculib3/STM32F0_files/CMSIS/core_cm0.h **** 
 267:../mculib3/STM32F0_files/CMSIS/core_cm0.h **** #define APSR_C_Pos                         29U                                            /*!< APSR
 268:../mculib3/STM32F0_files/CMSIS/core_cm0.h **** #define APSR_C_Msk                         (1UL << APSR_C_Pos)                            /*!< APSR
 269:../mculib3/STM32F0_files/CMSIS/core_cm0.h **** 
 270:../mculib3/STM32F0_files/CMSIS/core_cm0.h **** #define APSR_V_Pos                         28U                                            /*!< APSR
 271:../mculib3/STM32F0_files/CMSIS/core_cm0.h **** #define APSR_V_Msk                         (1UL << APSR_V_Pos)                            /*!< APSR
 272:../mculib3/STM32F0_files/CMSIS/core_cm0.h **** 
 273:../mculib3/STM32F0_files/CMSIS/core_cm0.h **** 
 274:../mculib3/STM32F0_files/CMSIS/core_cm0.h **** /**
 275:../mculib3/STM32F0_files/CMSIS/core_cm0.h ****   \brief  Union type to access the Interrupt Program Status Register (IPSR).
 276:../mculib3/STM32F0_files/CMSIS/core_cm0.h ****  */
 277:../mculib3/STM32F0_files/CMSIS/core_cm0.h **** typedef union
 278:../mculib3/STM32F0_files/CMSIS/core_cm0.h **** {
 279:../mculib3/STM32F0_files/CMSIS/core_cm0.h ****   struct
 280:../mculib3/STM32F0_files/CMSIS/core_cm0.h ****   {
 281:../mculib3/STM32F0_files/CMSIS/core_cm0.h ****     uint32_t ISR:9;                      /*!< bit:  0.. 8  Exception number */
 282:../mculib3/STM32F0_files/CMSIS/core_cm0.h ****     uint32_t _reserved0:23;              /*!< bit:  9..31  Reserved */
 283:../mculib3/STM32F0_files/CMSIS/core_cm0.h ****   } b;                                   /*!< Structure used for bit  access */
 284:../mculib3/STM32F0_files/CMSIS/core_cm0.h ****   uint32_t w;                            /*!< Type      used for word access */
 285:../mculib3/STM32F0_files/CMSIS/core_cm0.h **** } IPSR_Type;
 286:../mculib3/STM32F0_files/CMSIS/core_cm0.h **** 
 287:../mculib3/STM32F0_files/CMSIS/core_cm0.h **** /* IPSR Register Definitions */
 288:../mculib3/STM32F0_files/CMSIS/core_cm0.h **** #define IPSR_ISR_Pos                        0U                                            /*!< IPSR
 289:../mculib3/STM32F0_files/CMSIS/core_cm0.h **** #define IPSR_ISR_Msk                       (0x1FFUL /*<< IPSR_ISR_Pos*/)                  /*!< IPSR
 290:../mculib3/STM32F0_files/CMSIS/core_cm0.h **** 
 291:../mculib3/STM32F0_files/CMSIS/core_cm0.h **** 
 292:../mculib3/STM32F0_files/CMSIS/core_cm0.h **** /**
 293:../mculib3/STM32F0_files/CMSIS/core_cm0.h ****   \brief  Union type to access the Special-Purpose Program Status Registers (xPSR).
 294:../mculib3/STM32F0_files/CMSIS/core_cm0.h ****  */
 295:../mculib3/STM32F0_files/CMSIS/core_cm0.h **** typedef union
 296:../mculib3/STM32F0_files/CMSIS/core_cm0.h **** {
 297:../mculib3/STM32F0_files/CMSIS/core_cm0.h ****   struct
 298:../mculib3/STM32F0_files/CMSIS/core_cm0.h ****   {
 299:../mculib3/STM32F0_files/CMSIS/core_cm0.h ****     uint32_t ISR:9;                      /*!< bit:  0.. 8  Exception number */
 300:../mculib3/STM32F0_files/CMSIS/core_cm0.h ****     uint32_t _reserved0:15;              /*!< bit:  9..23  Reserved */
 301:../mculib3/STM32F0_files/CMSIS/core_cm0.h ****     uint32_t T:1;                        /*!< bit:     24  Thumb bit        (read 0) */
 302:../mculib3/STM32F0_files/CMSIS/core_cm0.h ****     uint32_t _reserved1:3;               /*!< bit: 25..27  Reserved */
 303:../mculib3/STM32F0_files/CMSIS/core_cm0.h ****     uint32_t V:1;                        /*!< bit:     28  Overflow condition code flag */
 304:../mculib3/STM32F0_files/CMSIS/core_cm0.h ****     uint32_t C:1;                        /*!< bit:     29  Carry condition code flag */
 305:../mculib3/STM32F0_files/CMSIS/core_cm0.h ****     uint32_t Z:1;                        /*!< bit:     30  Zero condition code flag */
 306:../mculib3/STM32F0_files/CMSIS/core_cm0.h ****     uint32_t N:1;                        /*!< bit:     31  Negative condition code flag */
 307:../mculib3/STM32F0_files/CMSIS/core_cm0.h ****   } b;                                   /*!< Structure used for bit  access */
 308:../mculib3/STM32F0_files/CMSIS/core_cm0.h ****   uint32_t w;                            /*!< Type      used for word access */
 309:../mculib3/STM32F0_files/CMSIS/core_cm0.h **** } xPSR_Type;
 310:../mculib3/STM32F0_files/CMSIS/core_cm0.h **** 
 311:../mculib3/STM32F0_files/CMSIS/core_cm0.h **** /* xPSR Register Definitions */
 312:../mculib3/STM32F0_files/CMSIS/core_cm0.h **** #define xPSR_N_Pos                         31U                                            /*!< xPSR
 313:../mculib3/STM32F0_files/CMSIS/core_cm0.h **** #define xPSR_N_Msk                         (1UL << xPSR_N_Pos)                            /*!< xPSR
 314:../mculib3/STM32F0_files/CMSIS/core_cm0.h **** 
 315:../mculib3/STM32F0_files/CMSIS/core_cm0.h **** #define xPSR_Z_Pos                         30U                                            /*!< xPSR
 316:../mculib3/STM32F0_files/CMSIS/core_cm0.h **** #define xPSR_Z_Msk                         (1UL << xPSR_Z_Pos)                            /*!< xPSR
 317:../mculib3/STM32F0_files/CMSIS/core_cm0.h **** 
 318:../mculib3/STM32F0_files/CMSIS/core_cm0.h **** #define xPSR_C_Pos                         29U                                            /*!< xPSR
 319:../mculib3/STM32F0_files/CMSIS/core_cm0.h **** #define xPSR_C_Msk                         (1UL << xPSR_C_Pos)                            /*!< xPSR
ARM GAS  /tmp/ccsVPAmO.s 			page 7


 320:../mculib3/STM32F0_files/CMSIS/core_cm0.h **** 
 321:../mculib3/STM32F0_files/CMSIS/core_cm0.h **** #define xPSR_V_Pos                         28U                                            /*!< xPSR
 322:../mculib3/STM32F0_files/CMSIS/core_cm0.h **** #define xPSR_V_Msk                         (1UL << xPSR_V_Pos)                            /*!< xPSR
 323:../mculib3/STM32F0_files/CMSIS/core_cm0.h **** 
 324:../mculib3/STM32F0_files/CMSIS/core_cm0.h **** #define xPSR_T_Pos                         24U                                            /*!< xPSR
 325:../mculib3/STM32F0_files/CMSIS/core_cm0.h **** #define xPSR_T_Msk                         (1UL << xPSR_T_Pos)                            /*!< xPSR
 326:../mculib3/STM32F0_files/CMSIS/core_cm0.h **** 
 327:../mculib3/STM32F0_files/CMSIS/core_cm0.h **** #define xPSR_ISR_Pos                        0U                                            /*!< xPSR
 328:../mculib3/STM32F0_files/CMSIS/core_cm0.h **** #define xPSR_ISR_Msk                       (0x1FFUL /*<< xPSR_ISR_Pos*/)                  /*!< xPSR
 329:../mculib3/STM32F0_files/CMSIS/core_cm0.h **** 
 330:../mculib3/STM32F0_files/CMSIS/core_cm0.h **** 
 331:../mculib3/STM32F0_files/CMSIS/core_cm0.h **** /**
 332:../mculib3/STM32F0_files/CMSIS/core_cm0.h ****   \brief  Union type to access the Control Registers (CONTROL).
 333:../mculib3/STM32F0_files/CMSIS/core_cm0.h ****  */
 334:../mculib3/STM32F0_files/CMSIS/core_cm0.h **** typedef union
 335:../mculib3/STM32F0_files/CMSIS/core_cm0.h **** {
 336:../mculib3/STM32F0_files/CMSIS/core_cm0.h ****   struct
 337:../mculib3/STM32F0_files/CMSIS/core_cm0.h ****   {
 338:../mculib3/STM32F0_files/CMSIS/core_cm0.h ****     uint32_t _reserved0:1;               /*!< bit:      0  Reserved */
 339:../mculib3/STM32F0_files/CMSIS/core_cm0.h ****     uint32_t SPSEL:1;                    /*!< bit:      1  Stack to be used */
 340:../mculib3/STM32F0_files/CMSIS/core_cm0.h ****     uint32_t _reserved1:30;              /*!< bit:  2..31  Reserved */
 341:../mculib3/STM32F0_files/CMSIS/core_cm0.h ****   } b;                                   /*!< Structure used for bit  access */
 342:../mculib3/STM32F0_files/CMSIS/core_cm0.h ****   uint32_t w;                            /*!< Type      used for word access */
 343:../mculib3/STM32F0_files/CMSIS/core_cm0.h **** } CONTROL_Type;
 344:../mculib3/STM32F0_files/CMSIS/core_cm0.h **** 
 345:../mculib3/STM32F0_files/CMSIS/core_cm0.h **** /* CONTROL Register Definitions */
 346:../mculib3/STM32F0_files/CMSIS/core_cm0.h **** #define CONTROL_SPSEL_Pos                   1U                                            /*!< CONT
 347:../mculib3/STM32F0_files/CMSIS/core_cm0.h **** #define CONTROL_SPSEL_Msk                  (1UL << CONTROL_SPSEL_Pos)                     /*!< CONT
 348:../mculib3/STM32F0_files/CMSIS/core_cm0.h **** 
 349:../mculib3/STM32F0_files/CMSIS/core_cm0.h **** /*@} end of group CMSIS_CORE */
 350:../mculib3/STM32F0_files/CMSIS/core_cm0.h **** 
 351:../mculib3/STM32F0_files/CMSIS/core_cm0.h **** 
 352:../mculib3/STM32F0_files/CMSIS/core_cm0.h **** /**
 353:../mculib3/STM32F0_files/CMSIS/core_cm0.h ****   \ingroup    CMSIS_core_register
 354:../mculib3/STM32F0_files/CMSIS/core_cm0.h ****   \defgroup   CMSIS_NVIC  Nested Vectored Interrupt Controller (NVIC)
 355:../mculib3/STM32F0_files/CMSIS/core_cm0.h ****   \brief      Type definitions for the NVIC Registers
 356:../mculib3/STM32F0_files/CMSIS/core_cm0.h ****   @{
 357:../mculib3/STM32F0_files/CMSIS/core_cm0.h ****  */
 358:../mculib3/STM32F0_files/CMSIS/core_cm0.h **** 
 359:../mculib3/STM32F0_files/CMSIS/core_cm0.h **** /**
 360:../mculib3/STM32F0_files/CMSIS/core_cm0.h ****   \brief  Structure type to access the Nested Vectored Interrupt Controller (NVIC).
 361:../mculib3/STM32F0_files/CMSIS/core_cm0.h ****  */
 362:../mculib3/STM32F0_files/CMSIS/core_cm0.h **** typedef struct
 363:../mculib3/STM32F0_files/CMSIS/core_cm0.h **** {
 364:../mculib3/STM32F0_files/CMSIS/core_cm0.h ****   __IOM uint32_t ISER[1U];               /*!< Offset: 0x000 (R/W)  Interrupt Set Enable Register */
 365:../mculib3/STM32F0_files/CMSIS/core_cm0.h ****         uint32_t RESERVED0[31U];
 366:../mculib3/STM32F0_files/CMSIS/core_cm0.h ****   __IOM uint32_t ICER[1U];               /*!< Offset: 0x080 (R/W)  Interrupt Clear Enable Register 
 367:../mculib3/STM32F0_files/CMSIS/core_cm0.h ****         uint32_t RSERVED1[31U];
 368:../mculib3/STM32F0_files/CMSIS/core_cm0.h ****   __IOM uint32_t ISPR[1U];               /*!< Offset: 0x100 (R/W)  Interrupt Set Pending Register *
 369:../mculib3/STM32F0_files/CMSIS/core_cm0.h ****         uint32_t RESERVED2[31U];
 370:../mculib3/STM32F0_files/CMSIS/core_cm0.h ****   __IOM uint32_t ICPR[1U];               /*!< Offset: 0x180 (R/W)  Interrupt Clear Pending Register
 371:../mculib3/STM32F0_files/CMSIS/core_cm0.h ****         uint32_t RESERVED3[31U];
 372:../mculib3/STM32F0_files/CMSIS/core_cm0.h ****         uint32_t RESERVED4[64U];
 373:../mculib3/STM32F0_files/CMSIS/core_cm0.h ****   __IOM uint32_t IP[8U];                 /*!< Offset: 0x300 (R/W)  Interrupt Priority Register */
 374:../mculib3/STM32F0_files/CMSIS/core_cm0.h **** }  NVIC_Type;
 375:../mculib3/STM32F0_files/CMSIS/core_cm0.h **** 
 376:../mculib3/STM32F0_files/CMSIS/core_cm0.h **** /*@} end of group CMSIS_NVIC */
ARM GAS  /tmp/ccsVPAmO.s 			page 8


 377:../mculib3/STM32F0_files/CMSIS/core_cm0.h **** 
 378:../mculib3/STM32F0_files/CMSIS/core_cm0.h **** 
 379:../mculib3/STM32F0_files/CMSIS/core_cm0.h **** /**
 380:../mculib3/STM32F0_files/CMSIS/core_cm0.h ****   \ingroup  CMSIS_core_register
 381:../mculib3/STM32F0_files/CMSIS/core_cm0.h ****   \defgroup CMSIS_SCB     System Control Block (SCB)
 382:../mculib3/STM32F0_files/CMSIS/core_cm0.h ****   \brief    Type definitions for the System Control Block Registers
 383:../mculib3/STM32F0_files/CMSIS/core_cm0.h ****   @{
 384:../mculib3/STM32F0_files/CMSIS/core_cm0.h ****  */
 385:../mculib3/STM32F0_files/CMSIS/core_cm0.h **** 
 386:../mculib3/STM32F0_files/CMSIS/core_cm0.h **** /**
 387:../mculib3/STM32F0_files/CMSIS/core_cm0.h ****   \brief  Structure type to access the System Control Block (SCB).
 388:../mculib3/STM32F0_files/CMSIS/core_cm0.h ****  */
 389:../mculib3/STM32F0_files/CMSIS/core_cm0.h **** typedef struct
 390:../mculib3/STM32F0_files/CMSIS/core_cm0.h **** {
 391:../mculib3/STM32F0_files/CMSIS/core_cm0.h ****   __IM  uint32_t CPUID;                  /*!< Offset: 0x000 (R/ )  CPUID Base Register */
 392:../mculib3/STM32F0_files/CMSIS/core_cm0.h ****   __IOM uint32_t ICSR;                   /*!< Offset: 0x004 (R/W)  Interrupt Control and State Regi
 393:../mculib3/STM32F0_files/CMSIS/core_cm0.h ****         uint32_t RESERVED0;
 394:../mculib3/STM32F0_files/CMSIS/core_cm0.h ****   __IOM uint32_t AIRCR;                  /*!< Offset: 0x00C (R/W)  Application Interrupt and Reset 
 395:../mculib3/STM32F0_files/CMSIS/core_cm0.h ****   __IOM uint32_t SCR;                    /*!< Offset: 0x010 (R/W)  System Control Register */
 396:../mculib3/STM32F0_files/CMSIS/core_cm0.h ****   __IOM uint32_t CCR;                    /*!< Offset: 0x014 (R/W)  Configuration Control Register *
 397:../mculib3/STM32F0_files/CMSIS/core_cm0.h ****         uint32_t RESERVED1;
 398:../mculib3/STM32F0_files/CMSIS/core_cm0.h ****   __IOM uint32_t SHP[2U];                /*!< Offset: 0x01C (R/W)  System Handlers Priority Registe
 399:../mculib3/STM32F0_files/CMSIS/core_cm0.h ****   __IOM uint32_t SHCSR;                  /*!< Offset: 0x024 (R/W)  System Handler Control and State
 400:../mculib3/STM32F0_files/CMSIS/core_cm0.h **** } SCB_Type;
 401:../mculib3/STM32F0_files/CMSIS/core_cm0.h **** 
 402:../mculib3/STM32F0_files/CMSIS/core_cm0.h **** /* SCB CPUID Register Definitions */
 403:../mculib3/STM32F0_files/CMSIS/core_cm0.h **** #define SCB_CPUID_IMPLEMENTER_Pos          24U                                            /*!< SCB 
 404:../mculib3/STM32F0_files/CMSIS/core_cm0.h **** #define SCB_CPUID_IMPLEMENTER_Msk          (0xFFUL << SCB_CPUID_IMPLEMENTER_Pos)          /*!< SCB 
 405:../mculib3/STM32F0_files/CMSIS/core_cm0.h **** 
 406:../mculib3/STM32F0_files/CMSIS/core_cm0.h **** #define SCB_CPUID_VARIANT_Pos              20U                                            /*!< SCB 
 407:../mculib3/STM32F0_files/CMSIS/core_cm0.h **** #define SCB_CPUID_VARIANT_Msk              (0xFUL << SCB_CPUID_VARIANT_Pos)               /*!< SCB 
 408:../mculib3/STM32F0_files/CMSIS/core_cm0.h **** 
 409:../mculib3/STM32F0_files/CMSIS/core_cm0.h **** #define SCB_CPUID_ARCHITECTURE_Pos         16U                                            /*!< SCB 
 410:../mculib3/STM32F0_files/CMSIS/core_cm0.h **** #define SCB_CPUID_ARCHITECTURE_Msk         (0xFUL << SCB_CPUID_ARCHITECTURE_Pos)          /*!< SCB 
 411:../mculib3/STM32F0_files/CMSIS/core_cm0.h **** 
 412:../mculib3/STM32F0_files/CMSIS/core_cm0.h **** #define SCB_CPUID_PARTNO_Pos                4U                                            /*!< SCB 
 413:../mculib3/STM32F0_files/CMSIS/core_cm0.h **** #define SCB_CPUID_PARTNO_Msk               (0xFFFUL << SCB_CPUID_PARTNO_Pos)              /*!< SCB 
 414:../mculib3/STM32F0_files/CMSIS/core_cm0.h **** 
 415:../mculib3/STM32F0_files/CMSIS/core_cm0.h **** #define SCB_CPUID_REVISION_Pos              0U                                            /*!< SCB 
 416:../mculib3/STM32F0_files/CMSIS/core_cm0.h **** #define SCB_CPUID_REVISION_Msk             (0xFUL /*<< SCB_CPUID_REVISION_Pos*/)          /*!< SCB 
 417:../mculib3/STM32F0_files/CMSIS/core_cm0.h **** 
 418:../mculib3/STM32F0_files/CMSIS/core_cm0.h **** /* SCB Interrupt Control State Register Definitions */
 419:../mculib3/STM32F0_files/CMSIS/core_cm0.h **** #define SCB_ICSR_NMIPENDSET_Pos            31U                                            /*!< SCB 
 420:../mculib3/STM32F0_files/CMSIS/core_cm0.h **** #define SCB_ICSR_NMIPENDSET_Msk            (1UL << SCB_ICSR_NMIPENDSET_Pos)               /*!< SCB 
 421:../mculib3/STM32F0_files/CMSIS/core_cm0.h **** 
 422:../mculib3/STM32F0_files/CMSIS/core_cm0.h **** #define SCB_ICSR_PENDSVSET_Pos             28U                                            /*!< SCB 
 423:../mculib3/STM32F0_files/CMSIS/core_cm0.h **** #define SCB_ICSR_PENDSVSET_Msk             (1UL << SCB_ICSR_PENDSVSET_Pos)                /*!< SCB 
 424:../mculib3/STM32F0_files/CMSIS/core_cm0.h **** 
 425:../mculib3/STM32F0_files/CMSIS/core_cm0.h **** #define SCB_ICSR_PENDSVCLR_Pos             27U                                            /*!< SCB 
 426:../mculib3/STM32F0_files/CMSIS/core_cm0.h **** #define SCB_ICSR_PENDSVCLR_Msk             (1UL << SCB_ICSR_PENDSVCLR_Pos)                /*!< SCB 
 427:../mculib3/STM32F0_files/CMSIS/core_cm0.h **** 
 428:../mculib3/STM32F0_files/CMSIS/core_cm0.h **** #define SCB_ICSR_PENDSTSET_Pos             26U                                            /*!< SCB 
 429:../mculib3/STM32F0_files/CMSIS/core_cm0.h **** #define SCB_ICSR_PENDSTSET_Msk             (1UL << SCB_ICSR_PENDSTSET_Pos)                /*!< SCB 
 430:../mculib3/STM32F0_files/CMSIS/core_cm0.h **** 
 431:../mculib3/STM32F0_files/CMSIS/core_cm0.h **** #define SCB_ICSR_PENDSTCLR_Pos             25U                                            /*!< SCB 
 432:../mculib3/STM32F0_files/CMSIS/core_cm0.h **** #define SCB_ICSR_PENDSTCLR_Msk             (1UL << SCB_ICSR_PENDSTCLR_Pos)                /*!< SCB 
 433:../mculib3/STM32F0_files/CMSIS/core_cm0.h **** 
ARM GAS  /tmp/ccsVPAmO.s 			page 9


 434:../mculib3/STM32F0_files/CMSIS/core_cm0.h **** #define SCB_ICSR_ISRPREEMPT_Pos            23U                                            /*!< SCB 
 435:../mculib3/STM32F0_files/CMSIS/core_cm0.h **** #define SCB_ICSR_ISRPREEMPT_Msk            (1UL << SCB_ICSR_ISRPREEMPT_Pos)               /*!< SCB 
 436:../mculib3/STM32F0_files/CMSIS/core_cm0.h **** 
 437:../mculib3/STM32F0_files/CMSIS/core_cm0.h **** #define SCB_ICSR_ISRPENDING_Pos            22U                                            /*!< SCB 
 438:../mculib3/STM32F0_files/CMSIS/core_cm0.h **** #define SCB_ICSR_ISRPENDING_Msk            (1UL << SCB_ICSR_ISRPENDING_Pos)               /*!< SCB 
 439:../mculib3/STM32F0_files/CMSIS/core_cm0.h **** 
 440:../mculib3/STM32F0_files/CMSIS/core_cm0.h **** #define SCB_ICSR_VECTPENDING_Pos           12U                                            /*!< SCB 
 441:../mculib3/STM32F0_files/CMSIS/core_cm0.h **** #define SCB_ICSR_VECTPENDING_Msk           (0x1FFUL << SCB_ICSR_VECTPENDING_Pos)          /*!< SCB 
 442:../mculib3/STM32F0_files/CMSIS/core_cm0.h **** 
 443:../mculib3/STM32F0_files/CMSIS/core_cm0.h **** #define SCB_ICSR_VECTACTIVE_Pos             0U                                            /*!< SCB 
 444:../mculib3/STM32F0_files/CMSIS/core_cm0.h **** #define SCB_ICSR_VECTACTIVE_Msk            (0x1FFUL /*<< SCB_ICSR_VECTACTIVE_Pos*/)       /*!< SCB 
 445:../mculib3/STM32F0_files/CMSIS/core_cm0.h **** 
 446:../mculib3/STM32F0_files/CMSIS/core_cm0.h **** /* SCB Application Interrupt and Reset Control Register Definitions */
 447:../mculib3/STM32F0_files/CMSIS/core_cm0.h **** #define SCB_AIRCR_VECTKEY_Pos              16U                                            /*!< SCB 
 448:../mculib3/STM32F0_files/CMSIS/core_cm0.h **** #define SCB_AIRCR_VECTKEY_Msk              (0xFFFFUL << SCB_AIRCR_VECTKEY_Pos)            /*!< SCB 
 449:../mculib3/STM32F0_files/CMSIS/core_cm0.h **** 
 450:../mculib3/STM32F0_files/CMSIS/core_cm0.h **** #define SCB_AIRCR_VECTKEYSTAT_Pos          16U                                            /*!< SCB 
 451:../mculib3/STM32F0_files/CMSIS/core_cm0.h **** #define SCB_AIRCR_VECTKEYSTAT_Msk          (0xFFFFUL << SCB_AIRCR_VECTKEYSTAT_Pos)        /*!< SCB 
 452:../mculib3/STM32F0_files/CMSIS/core_cm0.h **** 
 453:../mculib3/STM32F0_files/CMSIS/core_cm0.h **** #define SCB_AIRCR_ENDIANESS_Pos            15U                                            /*!< SCB 
 454:../mculib3/STM32F0_files/CMSIS/core_cm0.h **** #define SCB_AIRCR_ENDIANESS_Msk            (1UL << SCB_AIRCR_ENDIANESS_Pos)               /*!< SCB 
 455:../mculib3/STM32F0_files/CMSIS/core_cm0.h **** 
 456:../mculib3/STM32F0_files/CMSIS/core_cm0.h **** #define SCB_AIRCR_SYSRESETREQ_Pos           2U                                            /*!< SCB 
 457:../mculib3/STM32F0_files/CMSIS/core_cm0.h **** #define SCB_AIRCR_SYSRESETREQ_Msk          (1UL << SCB_AIRCR_SYSRESETREQ_Pos)             /*!< SCB 
 458:../mculib3/STM32F0_files/CMSIS/core_cm0.h **** 
 459:../mculib3/STM32F0_files/CMSIS/core_cm0.h **** #define SCB_AIRCR_VECTCLRACTIVE_Pos         1U                                            /*!< SCB 
 460:../mculib3/STM32F0_files/CMSIS/core_cm0.h **** #define SCB_AIRCR_VECTCLRACTIVE_Msk        (1UL << SCB_AIRCR_VECTCLRACTIVE_Pos)           /*!< SCB 
 461:../mculib3/STM32F0_files/CMSIS/core_cm0.h **** 
 462:../mculib3/STM32F0_files/CMSIS/core_cm0.h **** /* SCB System Control Register Definitions */
 463:../mculib3/STM32F0_files/CMSIS/core_cm0.h **** #define SCB_SCR_SEVONPEND_Pos               4U                                            /*!< SCB 
 464:../mculib3/STM32F0_files/CMSIS/core_cm0.h **** #define SCB_SCR_SEVONPEND_Msk              (1UL << SCB_SCR_SEVONPEND_Pos)                 /*!< SCB 
 465:../mculib3/STM32F0_files/CMSIS/core_cm0.h **** 
 466:../mculib3/STM32F0_files/CMSIS/core_cm0.h **** #define SCB_SCR_SLEEPDEEP_Pos               2U                                            /*!< SCB 
 467:../mculib3/STM32F0_files/CMSIS/core_cm0.h **** #define SCB_SCR_SLEEPDEEP_Msk              (1UL << SCB_SCR_SLEEPDEEP_Pos)                 /*!< SCB 
 468:../mculib3/STM32F0_files/CMSIS/core_cm0.h **** 
 469:../mculib3/STM32F0_files/CMSIS/core_cm0.h **** #define SCB_SCR_SLEEPONEXIT_Pos             1U                                            /*!< SCB 
 470:../mculib3/STM32F0_files/CMSIS/core_cm0.h **** #define SCB_SCR_SLEEPONEXIT_Msk            (1UL << SCB_SCR_SLEEPONEXIT_Pos)               /*!< SCB 
 471:../mculib3/STM32F0_files/CMSIS/core_cm0.h **** 
 472:../mculib3/STM32F0_files/CMSIS/core_cm0.h **** /* SCB Configuration Control Register Definitions */
 473:../mculib3/STM32F0_files/CMSIS/core_cm0.h **** #define SCB_CCR_STKALIGN_Pos                9U                                            /*!< SCB 
 474:../mculib3/STM32F0_files/CMSIS/core_cm0.h **** #define SCB_CCR_STKALIGN_Msk               (1UL << SCB_CCR_STKALIGN_Pos)                  /*!< SCB 
 475:../mculib3/STM32F0_files/CMSIS/core_cm0.h **** 
 476:../mculib3/STM32F0_files/CMSIS/core_cm0.h **** #define SCB_CCR_UNALIGN_TRP_Pos             3U                                            /*!< SCB 
 477:../mculib3/STM32F0_files/CMSIS/core_cm0.h **** #define SCB_CCR_UNALIGN_TRP_Msk            (1UL << SCB_CCR_UNALIGN_TRP_Pos)               /*!< SCB 
 478:../mculib3/STM32F0_files/CMSIS/core_cm0.h **** 
 479:../mculib3/STM32F0_files/CMSIS/core_cm0.h **** /* SCB System Handler Control and State Register Definitions */
 480:../mculib3/STM32F0_files/CMSIS/core_cm0.h **** #define SCB_SHCSR_SVCALLPENDED_Pos         15U                                            /*!< SCB 
 481:../mculib3/STM32F0_files/CMSIS/core_cm0.h **** #define SCB_SHCSR_SVCALLPENDED_Msk         (1UL << SCB_SHCSR_SVCALLPENDED_Pos)            /*!< SCB 
 482:../mculib3/STM32F0_files/CMSIS/core_cm0.h **** 
 483:../mculib3/STM32F0_files/CMSIS/core_cm0.h **** /*@} end of group CMSIS_SCB */
 484:../mculib3/STM32F0_files/CMSIS/core_cm0.h **** 
 485:../mculib3/STM32F0_files/CMSIS/core_cm0.h **** 
 486:../mculib3/STM32F0_files/CMSIS/core_cm0.h **** /**
 487:../mculib3/STM32F0_files/CMSIS/core_cm0.h ****   \ingroup  CMSIS_core_register
 488:../mculib3/STM32F0_files/CMSIS/core_cm0.h ****   \defgroup CMSIS_SysTick     System Tick Timer (SysTick)
 489:../mculib3/STM32F0_files/CMSIS/core_cm0.h ****   \brief    Type definitions for the System Timer Registers.
 490:../mculib3/STM32F0_files/CMSIS/core_cm0.h ****   @{
ARM GAS  /tmp/ccsVPAmO.s 			page 10


 491:../mculib3/STM32F0_files/CMSIS/core_cm0.h ****  */
 492:../mculib3/STM32F0_files/CMSIS/core_cm0.h **** 
 493:../mculib3/STM32F0_files/CMSIS/core_cm0.h **** /**
 494:../mculib3/STM32F0_files/CMSIS/core_cm0.h ****   \brief  Structure type to access the System Timer (SysTick).
 495:../mculib3/STM32F0_files/CMSIS/core_cm0.h ****  */
 496:../mculib3/STM32F0_files/CMSIS/core_cm0.h **** typedef struct
 497:../mculib3/STM32F0_files/CMSIS/core_cm0.h **** {
 498:../mculib3/STM32F0_files/CMSIS/core_cm0.h ****   __IOM uint32_t CTRL;                   /*!< Offset: 0x000 (R/W)  SysTick Control and Status Regis
 499:../mculib3/STM32F0_files/CMSIS/core_cm0.h ****   __IOM uint32_t LOAD;                   /*!< Offset: 0x004 (R/W)  SysTick Reload Value Register */
 500:../mculib3/STM32F0_files/CMSIS/core_cm0.h ****   __IOM uint32_t VAL;                    /*!< Offset: 0x008 (R/W)  SysTick Current Value Register *
 501:../mculib3/STM32F0_files/CMSIS/core_cm0.h ****   __IM  uint32_t CALIB;                  /*!< Offset: 0x00C (R/ )  SysTick Calibration Register */
 502:../mculib3/STM32F0_files/CMSIS/core_cm0.h **** } SysTick_Type;
 503:../mculib3/STM32F0_files/CMSIS/core_cm0.h **** 
 504:../mculib3/STM32F0_files/CMSIS/core_cm0.h **** /* SysTick Control / Status Register Definitions */
 505:../mculib3/STM32F0_files/CMSIS/core_cm0.h **** #define SysTick_CTRL_COUNTFLAG_Pos         16U                                            /*!< SysT
 506:../mculib3/STM32F0_files/CMSIS/core_cm0.h **** #define SysTick_CTRL_COUNTFLAG_Msk         (1UL << SysTick_CTRL_COUNTFLAG_Pos)            /*!< SysT
 507:../mculib3/STM32F0_files/CMSIS/core_cm0.h **** 
 508:../mculib3/STM32F0_files/CMSIS/core_cm0.h **** #define SysTick_CTRL_CLKSOURCE_Pos          2U                                            /*!< SysT
 509:../mculib3/STM32F0_files/CMSIS/core_cm0.h **** #define SysTick_CTRL_CLKSOURCE_Msk         (1UL << SysTick_CTRL_CLKSOURCE_Pos)            /*!< SysT
 510:../mculib3/STM32F0_files/CMSIS/core_cm0.h **** 
 511:../mculib3/STM32F0_files/CMSIS/core_cm0.h **** #define SysTick_CTRL_TICKINT_Pos            1U                                            /*!< SysT
 512:../mculib3/STM32F0_files/CMSIS/core_cm0.h **** #define SysTick_CTRL_TICKINT_Msk           (1UL << SysTick_CTRL_TICKINT_Pos)              /*!< SysT
 513:../mculib3/STM32F0_files/CMSIS/core_cm0.h **** 
 514:../mculib3/STM32F0_files/CMSIS/core_cm0.h **** #define SysTick_CTRL_ENABLE_Pos             0U                                            /*!< SysT
 515:../mculib3/STM32F0_files/CMSIS/core_cm0.h **** #define SysTick_CTRL_ENABLE_Msk            (1UL /*<< SysTick_CTRL_ENABLE_Pos*/)           /*!< SysT
 516:../mculib3/STM32F0_files/CMSIS/core_cm0.h **** 
 517:../mculib3/STM32F0_files/CMSIS/core_cm0.h **** /* SysTick Reload Register Definitions */
 518:../mculib3/STM32F0_files/CMSIS/core_cm0.h **** #define SysTick_LOAD_RELOAD_Pos             0U                                            /*!< SysT
 519:../mculib3/STM32F0_files/CMSIS/core_cm0.h **** #define SysTick_LOAD_RELOAD_Msk            (0xFFFFFFUL /*<< SysTick_LOAD_RELOAD_Pos*/)    /*!< SysT
 520:../mculib3/STM32F0_files/CMSIS/core_cm0.h **** 
 521:../mculib3/STM32F0_files/CMSIS/core_cm0.h **** /* SysTick Current Register Definitions */
 522:../mculib3/STM32F0_files/CMSIS/core_cm0.h **** #define SysTick_VAL_CURRENT_Pos             0U                                            /*!< SysT
 523:../mculib3/STM32F0_files/CMSIS/core_cm0.h **** #define SysTick_VAL_CURRENT_Msk            (0xFFFFFFUL /*<< SysTick_VAL_CURRENT_Pos*/)    /*!< SysT
 524:../mculib3/STM32F0_files/CMSIS/core_cm0.h **** 
 525:../mculib3/STM32F0_files/CMSIS/core_cm0.h **** /* SysTick Calibration Register Definitions */
 526:../mculib3/STM32F0_files/CMSIS/core_cm0.h **** #define SysTick_CALIB_NOREF_Pos            31U                                            /*!< SysT
 527:../mculib3/STM32F0_files/CMSIS/core_cm0.h **** #define SysTick_CALIB_NOREF_Msk            (1UL << SysTick_CALIB_NOREF_Pos)               /*!< SysT
 528:../mculib3/STM32F0_files/CMSIS/core_cm0.h **** 
 529:../mculib3/STM32F0_files/CMSIS/core_cm0.h **** #define SysTick_CALIB_SKEW_Pos             30U                                            /*!< SysT
 530:../mculib3/STM32F0_files/CMSIS/core_cm0.h **** #define SysTick_CALIB_SKEW_Msk             (1UL << SysTick_CALIB_SKEW_Pos)                /*!< SysT
 531:../mculib3/STM32F0_files/CMSIS/core_cm0.h **** 
 532:../mculib3/STM32F0_files/CMSIS/core_cm0.h **** #define SysTick_CALIB_TENMS_Pos             0U                                            /*!< SysT
 533:../mculib3/STM32F0_files/CMSIS/core_cm0.h **** #define SysTick_CALIB_TENMS_Msk            (0xFFFFFFUL /*<< SysTick_CALIB_TENMS_Pos*/)    /*!< SysT
 534:../mculib3/STM32F0_files/CMSIS/core_cm0.h **** 
 535:../mculib3/STM32F0_files/CMSIS/core_cm0.h **** /*@} end of group CMSIS_SysTick */
 536:../mculib3/STM32F0_files/CMSIS/core_cm0.h **** 
 537:../mculib3/STM32F0_files/CMSIS/core_cm0.h **** 
 538:../mculib3/STM32F0_files/CMSIS/core_cm0.h **** /**
 539:../mculib3/STM32F0_files/CMSIS/core_cm0.h ****   \ingroup  CMSIS_core_register
 540:../mculib3/STM32F0_files/CMSIS/core_cm0.h ****   \defgroup CMSIS_CoreDebug       Core Debug Registers (CoreDebug)
 541:../mculib3/STM32F0_files/CMSIS/core_cm0.h ****   \brief    Cortex-M0 Core Debug Registers (DCB registers, SHCSR, and DFSR) are only accessible ove
 542:../mculib3/STM32F0_files/CMSIS/core_cm0.h ****             Therefore they are not covered by the Cortex-M0 header file.
 543:../mculib3/STM32F0_files/CMSIS/core_cm0.h ****   @{
 544:../mculib3/STM32F0_files/CMSIS/core_cm0.h ****  */
 545:../mculib3/STM32F0_files/CMSIS/core_cm0.h **** /*@} end of group CMSIS_CoreDebug */
 546:../mculib3/STM32F0_files/CMSIS/core_cm0.h **** 
 547:../mculib3/STM32F0_files/CMSIS/core_cm0.h **** 
ARM GAS  /tmp/ccsVPAmO.s 			page 11


 548:../mculib3/STM32F0_files/CMSIS/core_cm0.h **** /**
 549:../mculib3/STM32F0_files/CMSIS/core_cm0.h ****   \ingroup    CMSIS_core_register
 550:../mculib3/STM32F0_files/CMSIS/core_cm0.h ****   \defgroup   CMSIS_core_bitfield     Core register bit field macros
 551:../mculib3/STM32F0_files/CMSIS/core_cm0.h ****   \brief      Macros for use with bit field definitions (xxx_Pos, xxx_Msk).
 552:../mculib3/STM32F0_files/CMSIS/core_cm0.h ****   @{
 553:../mculib3/STM32F0_files/CMSIS/core_cm0.h ****  */
 554:../mculib3/STM32F0_files/CMSIS/core_cm0.h **** 
 555:../mculib3/STM32F0_files/CMSIS/core_cm0.h **** /**
 556:../mculib3/STM32F0_files/CMSIS/core_cm0.h ****   \brief   Mask and shift a bit field value for use in a register bit range.
 557:../mculib3/STM32F0_files/CMSIS/core_cm0.h ****   \param[in] field  Name of the register bit field.
 558:../mculib3/STM32F0_files/CMSIS/core_cm0.h ****   \param[in] value  Value of the bit field.
 559:../mculib3/STM32F0_files/CMSIS/core_cm0.h ****   \return           Masked and shifted value.
 560:../mculib3/STM32F0_files/CMSIS/core_cm0.h **** */
 561:../mculib3/STM32F0_files/CMSIS/core_cm0.h **** #define _VAL2FLD(field, value)    ((value << field ## _Pos) & field ## _Msk)
 562:../mculib3/STM32F0_files/CMSIS/core_cm0.h **** 
 563:../mculib3/STM32F0_files/CMSIS/core_cm0.h **** /**
 564:../mculib3/STM32F0_files/CMSIS/core_cm0.h ****   \brief     Mask and shift a register value to extract a bit filed value.
 565:../mculib3/STM32F0_files/CMSIS/core_cm0.h ****   \param[in] field  Name of the register bit field.
 566:../mculib3/STM32F0_files/CMSIS/core_cm0.h ****   \param[in] value  Value of register.
 567:../mculib3/STM32F0_files/CMSIS/core_cm0.h ****   \return           Masked and shifted bit field value.
 568:../mculib3/STM32F0_files/CMSIS/core_cm0.h **** */
 569:../mculib3/STM32F0_files/CMSIS/core_cm0.h **** #define _FLD2VAL(field, value)    ((value & field ## _Msk) >> field ## _Pos)
 570:../mculib3/STM32F0_files/CMSIS/core_cm0.h **** 
 571:../mculib3/STM32F0_files/CMSIS/core_cm0.h **** /*@} end of group CMSIS_core_bitfield */
 572:../mculib3/STM32F0_files/CMSIS/core_cm0.h **** 
 573:../mculib3/STM32F0_files/CMSIS/core_cm0.h **** 
 574:../mculib3/STM32F0_files/CMSIS/core_cm0.h **** /**
 575:../mculib3/STM32F0_files/CMSIS/core_cm0.h ****   \ingroup    CMSIS_core_register
 576:../mculib3/STM32F0_files/CMSIS/core_cm0.h ****   \defgroup   CMSIS_core_base     Core Definitions
 577:../mculib3/STM32F0_files/CMSIS/core_cm0.h ****   \brief      Definitions for base addresses, unions, and structures.
 578:../mculib3/STM32F0_files/CMSIS/core_cm0.h ****   @{
 579:../mculib3/STM32F0_files/CMSIS/core_cm0.h ****  */
 580:../mculib3/STM32F0_files/CMSIS/core_cm0.h **** 
 581:../mculib3/STM32F0_files/CMSIS/core_cm0.h **** /* Memory mapping of Cortex-M0 Hardware */
 582:../mculib3/STM32F0_files/CMSIS/core_cm0.h **** #define SCS_BASE            (0xE000E000UL)                            /*!< System Control Space Bas
 583:../mculib3/STM32F0_files/CMSIS/core_cm0.h **** #define SysTick_BASE        (SCS_BASE +  0x0010UL)                    /*!< SysTick Base Address */
 584:../mculib3/STM32F0_files/CMSIS/core_cm0.h **** #define NVIC_BASE           (SCS_BASE +  0x0100UL)                    /*!< NVIC Base Address */
 585:../mculib3/STM32F0_files/CMSIS/core_cm0.h **** #define SCB_BASE            (SCS_BASE +  0x0D00UL)                    /*!< System Control Block Bas
 586:../mculib3/STM32F0_files/CMSIS/core_cm0.h **** 
 587:../mculib3/STM32F0_files/CMSIS/core_cm0.h **** #define SCB                 ((SCB_Type       *)     SCB_BASE      )   /*!< SCB configuration struct
 588:../mculib3/STM32F0_files/CMSIS/core_cm0.h **** #define SysTick             ((SysTick_Type   *)     SysTick_BASE  )   /*!< SysTick configuration st
 589:../mculib3/STM32F0_files/CMSIS/core_cm0.h **** #define NVIC                ((NVIC_Type      *)     NVIC_BASE     )   /*!< NVIC configuration struc
 590:../mculib3/STM32F0_files/CMSIS/core_cm0.h **** 
 591:../mculib3/STM32F0_files/CMSIS/core_cm0.h **** 
 592:../mculib3/STM32F0_files/CMSIS/core_cm0.h **** /*@} */
 593:../mculib3/STM32F0_files/CMSIS/core_cm0.h **** 
 594:../mculib3/STM32F0_files/CMSIS/core_cm0.h **** 
 595:../mculib3/STM32F0_files/CMSIS/core_cm0.h **** 
 596:../mculib3/STM32F0_files/CMSIS/core_cm0.h **** /*******************************************************************************
 597:../mculib3/STM32F0_files/CMSIS/core_cm0.h ****  *                Hardware Abstraction Layer
 598:../mculib3/STM32F0_files/CMSIS/core_cm0.h ****   Core Function Interface contains:
 599:../mculib3/STM32F0_files/CMSIS/core_cm0.h ****   - Core NVIC Functions
 600:../mculib3/STM32F0_files/CMSIS/core_cm0.h ****   - Core SysTick Functions
 601:../mculib3/STM32F0_files/CMSIS/core_cm0.h ****   - Core Register Access Functions
 602:../mculib3/STM32F0_files/CMSIS/core_cm0.h ****  ******************************************************************************/
 603:../mculib3/STM32F0_files/CMSIS/core_cm0.h **** /**
 604:../mculib3/STM32F0_files/CMSIS/core_cm0.h ****   \defgroup CMSIS_Core_FunctionInterface Functions and Instructions Reference
ARM GAS  /tmp/ccsVPAmO.s 			page 12


 605:../mculib3/STM32F0_files/CMSIS/core_cm0.h **** */
 606:../mculib3/STM32F0_files/CMSIS/core_cm0.h **** 
 607:../mculib3/STM32F0_files/CMSIS/core_cm0.h **** 
 608:../mculib3/STM32F0_files/CMSIS/core_cm0.h **** 
 609:../mculib3/STM32F0_files/CMSIS/core_cm0.h **** /* ##########################   NVIC functions  #################################### */
 610:../mculib3/STM32F0_files/CMSIS/core_cm0.h **** /**
 611:../mculib3/STM32F0_files/CMSIS/core_cm0.h ****   \ingroup  CMSIS_Core_FunctionInterface
 612:../mculib3/STM32F0_files/CMSIS/core_cm0.h ****   \defgroup CMSIS_Core_NVICFunctions NVIC Functions
 613:../mculib3/STM32F0_files/CMSIS/core_cm0.h ****   \brief    Functions that manage interrupts and exceptions via the NVIC.
 614:../mculib3/STM32F0_files/CMSIS/core_cm0.h ****   @{
 615:../mculib3/STM32F0_files/CMSIS/core_cm0.h ****  */
 616:../mculib3/STM32F0_files/CMSIS/core_cm0.h **** 
 617:../mculib3/STM32F0_files/CMSIS/core_cm0.h **** /* Interrupt Priorities are WORD accessible only under ARMv6M                   */
 618:../mculib3/STM32F0_files/CMSIS/core_cm0.h **** /* The following MACROS handle generation of the register offset and byte masks */
 619:../mculib3/STM32F0_files/CMSIS/core_cm0.h **** #define _BIT_SHIFT(IRQn)         (  ((((uint32_t)(int32_t)(IRQn))         )      &  0x03UL) * 8UL)
 620:../mculib3/STM32F0_files/CMSIS/core_cm0.h **** #define _SHP_IDX(IRQn)           ( (((((uint32_t)(int32_t)(IRQn)) & 0x0FUL)-8UL) >>    2UL)      )
 621:../mculib3/STM32F0_files/CMSIS/core_cm0.h **** #define _IP_IDX(IRQn)            (   (((uint32_t)(int32_t)(IRQn))                >>    2UL)      )
 622:../mculib3/STM32F0_files/CMSIS/core_cm0.h **** 
 623:../mculib3/STM32F0_files/CMSIS/core_cm0.h **** 
 624:../mculib3/STM32F0_files/CMSIS/core_cm0.h **** /**
 625:../mculib3/STM32F0_files/CMSIS/core_cm0.h ****   \brief   Enable External Interrupt
 626:../mculib3/STM32F0_files/CMSIS/core_cm0.h ****   \details Enables a device-specific interrupt in the NVIC interrupt controller.
 627:../mculib3/STM32F0_files/CMSIS/core_cm0.h ****   \param [in]      IRQn  External interrupt number. Value cannot be negative.
 628:../mculib3/STM32F0_files/CMSIS/core_cm0.h ****  */
 629:../mculib3/STM32F0_files/CMSIS/core_cm0.h **** __STATIC_INLINE void NVIC_EnableIRQ(IRQn_Type IRQn)
 630:../mculib3/STM32F0_files/CMSIS/core_cm0.h **** {
  25              		.loc 1 630 0
  26              		.cfi_startproc
  27              		@ args = 0, pretend = 0, frame = 0
  28              		@ frame_needed = 0, uses_anonymous_args = 0
  29              		@ link register save eliminated.
  30              	.LVL0:
 631:../mculib3/STM32F0_files/CMSIS/core_cm0.h ****   NVIC->ISER[0U] = (uint32_t)(1UL << (((uint32_t)(int32_t)IRQn) & 0x1FUL));
  31              		.loc 1 631 0
  32 0000 1F23     		movs	r3, #31
  33 0002 1840     		ands	r0, r3
  34              	.LVL1:
  35 0004 1E3B     		subs	r3, r3, #30
  36 0006 8340     		lsls	r3, r3, r0
  37 0008 014A     		ldr	r2, .L2
 632:../mculib3/STM32F0_files/CMSIS/core_cm0.h **** }
  38              		.loc 1 632 0
  39              		@ sp needed
 631:../mculib3/STM32F0_files/CMSIS/core_cm0.h ****   NVIC->ISER[0U] = (uint32_t)(1UL << (((uint32_t)(int32_t)IRQn) & 0x1FUL));
  40              		.loc 1 631 0
  41 000a 1360     		str	r3, [r2]
  42              		.loc 1 632 0
  43 000c 7047     		bx	lr
  44              	.L3:
  45 000e C046     		.align	2
  46              	.L2:
  47 0010 00E100E0 		.word	-536813312
  48              		.cfi_endproc
  49              	.LFE45:
  51              		.section	.text._ZSt9__find_ifIPbN9__gnu_cxx5__ops12_Iter_negateIZZN18Flash_updater_implIZ4mainE10F
  52              		.align	1
  53              		.syntax unified
ARM GAS  /tmp/ccsVPAmO.s 			page 13


  54              		.code	16
  55              		.thumb_func
  56              		.fpu softvfp
  58              	_ZSt9__find_ifIPbN9__gnu_cxx5__ops12_Iter_negateIZZN18Flash_updater_implIZ4mainE10Flash_dataJLN3mcu
  59              	.LFB5744:
  60              		.file 2 "/home/users/aag/code/gcc-arm-none-eabi-7-2018-q2-update/arm-none-eabi/include/c++/7.3.1/b
   1:/home/users/aag/code/gcc-arm-none-eabi-7-2018-q2-update/arm-none-eabi/include/c++/7.3.1/bits/stl_algo.h **** // Algorithm implementation -*- C++ -*-
   2:/home/users/aag/code/gcc-arm-none-eabi-7-2018-q2-update/arm-none-eabi/include/c++/7.3.1/bits/stl_algo.h **** 
   3:/home/users/aag/code/gcc-arm-none-eabi-7-2018-q2-update/arm-none-eabi/include/c++/7.3.1/bits/stl_algo.h **** // Copyright (C) 2001-2017 Free Software Foundation, Inc.
   4:/home/users/aag/code/gcc-arm-none-eabi-7-2018-q2-update/arm-none-eabi/include/c++/7.3.1/bits/stl_algo.h **** //
   5:/home/users/aag/code/gcc-arm-none-eabi-7-2018-q2-update/arm-none-eabi/include/c++/7.3.1/bits/stl_algo.h **** // This file is part of the GNU ISO C++ Library.  This library is free
   6:/home/users/aag/code/gcc-arm-none-eabi-7-2018-q2-update/arm-none-eabi/include/c++/7.3.1/bits/stl_algo.h **** // software; you can redistribute it and/or modify it under the
   7:/home/users/aag/code/gcc-arm-none-eabi-7-2018-q2-update/arm-none-eabi/include/c++/7.3.1/bits/stl_algo.h **** // terms of the GNU General Public License as published by the
   8:/home/users/aag/code/gcc-arm-none-eabi-7-2018-q2-update/arm-none-eabi/include/c++/7.3.1/bits/stl_algo.h **** // Free Software Foundation; either version 3, or (at your option)
   9:/home/users/aag/code/gcc-arm-none-eabi-7-2018-q2-update/arm-none-eabi/include/c++/7.3.1/bits/stl_algo.h **** // any later version.
  10:/home/users/aag/code/gcc-arm-none-eabi-7-2018-q2-update/arm-none-eabi/include/c++/7.3.1/bits/stl_algo.h **** 
  11:/home/users/aag/code/gcc-arm-none-eabi-7-2018-q2-update/arm-none-eabi/include/c++/7.3.1/bits/stl_algo.h **** // This library is distributed in the hope that it will be useful,
  12:/home/users/aag/code/gcc-arm-none-eabi-7-2018-q2-update/arm-none-eabi/include/c++/7.3.1/bits/stl_algo.h **** // but WITHOUT ANY WARRANTY; without even the implied warranty of
  13:/home/users/aag/code/gcc-arm-none-eabi-7-2018-q2-update/arm-none-eabi/include/c++/7.3.1/bits/stl_algo.h **** // MERCHANTABILITY or FITNESS FOR A PARTICULAR PURPOSE.  See the
  14:/home/users/aag/code/gcc-arm-none-eabi-7-2018-q2-update/arm-none-eabi/include/c++/7.3.1/bits/stl_algo.h **** // GNU General Public License for more details.
  15:/home/users/aag/code/gcc-arm-none-eabi-7-2018-q2-update/arm-none-eabi/include/c++/7.3.1/bits/stl_algo.h **** 
  16:/home/users/aag/code/gcc-arm-none-eabi-7-2018-q2-update/arm-none-eabi/include/c++/7.3.1/bits/stl_algo.h **** // Under Section 7 of GPL version 3, you are granted additional
  17:/home/users/aag/code/gcc-arm-none-eabi-7-2018-q2-update/arm-none-eabi/include/c++/7.3.1/bits/stl_algo.h **** // permissions described in the GCC Runtime Library Exception, version
  18:/home/users/aag/code/gcc-arm-none-eabi-7-2018-q2-update/arm-none-eabi/include/c++/7.3.1/bits/stl_algo.h **** // 3.1, as published by the Free Software Foundation.
  19:/home/users/aag/code/gcc-arm-none-eabi-7-2018-q2-update/arm-none-eabi/include/c++/7.3.1/bits/stl_algo.h **** 
  20:/home/users/aag/code/gcc-arm-none-eabi-7-2018-q2-update/arm-none-eabi/include/c++/7.3.1/bits/stl_algo.h **** // You should have received a copy of the GNU General Public License and
  21:/home/users/aag/code/gcc-arm-none-eabi-7-2018-q2-update/arm-none-eabi/include/c++/7.3.1/bits/stl_algo.h **** // a copy of the GCC Runtime Library Exception along with this program;
  22:/home/users/aag/code/gcc-arm-none-eabi-7-2018-q2-update/arm-none-eabi/include/c++/7.3.1/bits/stl_algo.h **** // see the files COPYING3 and COPYING.RUNTIME respectively.  If not, see
  23:/home/users/aag/code/gcc-arm-none-eabi-7-2018-q2-update/arm-none-eabi/include/c++/7.3.1/bits/stl_algo.h **** // <http://www.gnu.org/licenses/>.
  24:/home/users/aag/code/gcc-arm-none-eabi-7-2018-q2-update/arm-none-eabi/include/c++/7.3.1/bits/stl_algo.h **** 
  25:/home/users/aag/code/gcc-arm-none-eabi-7-2018-q2-update/arm-none-eabi/include/c++/7.3.1/bits/stl_algo.h **** /*
  26:/home/users/aag/code/gcc-arm-none-eabi-7-2018-q2-update/arm-none-eabi/include/c++/7.3.1/bits/stl_algo.h ****  *
  27:/home/users/aag/code/gcc-arm-none-eabi-7-2018-q2-update/arm-none-eabi/include/c++/7.3.1/bits/stl_algo.h ****  * Copyright (c) 1994
  28:/home/users/aag/code/gcc-arm-none-eabi-7-2018-q2-update/arm-none-eabi/include/c++/7.3.1/bits/stl_algo.h ****  * Hewlett-Packard Company
  29:/home/users/aag/code/gcc-arm-none-eabi-7-2018-q2-update/arm-none-eabi/include/c++/7.3.1/bits/stl_algo.h ****  *
  30:/home/users/aag/code/gcc-arm-none-eabi-7-2018-q2-update/arm-none-eabi/include/c++/7.3.1/bits/stl_algo.h ****  * Permission to use, copy, modify, distribute and sell this software
  31:/home/users/aag/code/gcc-arm-none-eabi-7-2018-q2-update/arm-none-eabi/include/c++/7.3.1/bits/stl_algo.h ****  * and its documentation for any purpose is hereby granted without fee,
  32:/home/users/aag/code/gcc-arm-none-eabi-7-2018-q2-update/arm-none-eabi/include/c++/7.3.1/bits/stl_algo.h ****  * provided that the above copyright notice appear in all copies and
  33:/home/users/aag/code/gcc-arm-none-eabi-7-2018-q2-update/arm-none-eabi/include/c++/7.3.1/bits/stl_algo.h ****  * that both that copyright notice and this permission notice appear
  34:/home/users/aag/code/gcc-arm-none-eabi-7-2018-q2-update/arm-none-eabi/include/c++/7.3.1/bits/stl_algo.h ****  * in supporting documentation.  Hewlett-Packard Company makes no
  35:/home/users/aag/code/gcc-arm-none-eabi-7-2018-q2-update/arm-none-eabi/include/c++/7.3.1/bits/stl_algo.h ****  * representations about the suitability of this software for any
  36:/home/users/aag/code/gcc-arm-none-eabi-7-2018-q2-update/arm-none-eabi/include/c++/7.3.1/bits/stl_algo.h ****  * purpose.  It is provided "as is" without express or implied warranty.
  37:/home/users/aag/code/gcc-arm-none-eabi-7-2018-q2-update/arm-none-eabi/include/c++/7.3.1/bits/stl_algo.h ****  *
  38:/home/users/aag/code/gcc-arm-none-eabi-7-2018-q2-update/arm-none-eabi/include/c++/7.3.1/bits/stl_algo.h ****  *
  39:/home/users/aag/code/gcc-arm-none-eabi-7-2018-q2-update/arm-none-eabi/include/c++/7.3.1/bits/stl_algo.h ****  * Copyright (c) 1996
  40:/home/users/aag/code/gcc-arm-none-eabi-7-2018-q2-update/arm-none-eabi/include/c++/7.3.1/bits/stl_algo.h ****  * Silicon Graphics Computer Systems, Inc.
  41:/home/users/aag/code/gcc-arm-none-eabi-7-2018-q2-update/arm-none-eabi/include/c++/7.3.1/bits/stl_algo.h ****  *
  42:/home/users/aag/code/gcc-arm-none-eabi-7-2018-q2-update/arm-none-eabi/include/c++/7.3.1/bits/stl_algo.h ****  * Permission to use, copy, modify, distribute and sell this software
  43:/home/users/aag/code/gcc-arm-none-eabi-7-2018-q2-update/arm-none-eabi/include/c++/7.3.1/bits/stl_algo.h ****  * and its documentation for any purpose is hereby granted without fee,
  44:/home/users/aag/code/gcc-arm-none-eabi-7-2018-q2-update/arm-none-eabi/include/c++/7.3.1/bits/stl_algo.h ****  * provided that the above copyright notice appear in all copies and
  45:/home/users/aag/code/gcc-arm-none-eabi-7-2018-q2-update/arm-none-eabi/include/c++/7.3.1/bits/stl_algo.h ****  * that both that copyright notice and this permission notice appear
  46:/home/users/aag/code/gcc-arm-none-eabi-7-2018-q2-update/arm-none-eabi/include/c++/7.3.1/bits/stl_algo.h ****  * in supporting documentation.  Silicon Graphics makes no
  47:/home/users/aag/code/gcc-arm-none-eabi-7-2018-q2-update/arm-none-eabi/include/c++/7.3.1/bits/stl_algo.h ****  * representations about the suitability of this software for any
  48:/home/users/aag/code/gcc-arm-none-eabi-7-2018-q2-update/arm-none-eabi/include/c++/7.3.1/bits/stl_algo.h ****  * purpose.  It is provided "as is" without express or implied warranty.
  49:/home/users/aag/code/gcc-arm-none-eabi-7-2018-q2-update/arm-none-eabi/include/c++/7.3.1/bits/stl_algo.h ****  */
  50:/home/users/aag/code/gcc-arm-none-eabi-7-2018-q2-update/arm-none-eabi/include/c++/7.3.1/bits/stl_algo.h **** 
  51:/home/users/aag/code/gcc-arm-none-eabi-7-2018-q2-update/arm-none-eabi/include/c++/7.3.1/bits/stl_algo.h **** /** @file bits/stl_algo.h
ARM GAS  /tmp/ccsVPAmO.s 			page 14


  52:/home/users/aag/code/gcc-arm-none-eabi-7-2018-q2-update/arm-none-eabi/include/c++/7.3.1/bits/stl_algo.h ****  *  This is an internal header file, included by other library headers.
  53:/home/users/aag/code/gcc-arm-none-eabi-7-2018-q2-update/arm-none-eabi/include/c++/7.3.1/bits/stl_algo.h ****  *  Do not attempt to use it directly. @headername{algorithm}
  54:/home/users/aag/code/gcc-arm-none-eabi-7-2018-q2-update/arm-none-eabi/include/c++/7.3.1/bits/stl_algo.h ****  */
  55:/home/users/aag/code/gcc-arm-none-eabi-7-2018-q2-update/arm-none-eabi/include/c++/7.3.1/bits/stl_algo.h **** 
  56:/home/users/aag/code/gcc-arm-none-eabi-7-2018-q2-update/arm-none-eabi/include/c++/7.3.1/bits/stl_algo.h **** #ifndef _STL_ALGO_H
  57:/home/users/aag/code/gcc-arm-none-eabi-7-2018-q2-update/arm-none-eabi/include/c++/7.3.1/bits/stl_algo.h **** #define _STL_ALGO_H 1
  58:/home/users/aag/code/gcc-arm-none-eabi-7-2018-q2-update/arm-none-eabi/include/c++/7.3.1/bits/stl_algo.h **** 
  59:/home/users/aag/code/gcc-arm-none-eabi-7-2018-q2-update/arm-none-eabi/include/c++/7.3.1/bits/stl_algo.h **** #include <cstdlib>	     // for rand
  60:/home/users/aag/code/gcc-arm-none-eabi-7-2018-q2-update/arm-none-eabi/include/c++/7.3.1/bits/stl_algo.h **** #include <bits/algorithmfwd.h>
  61:/home/users/aag/code/gcc-arm-none-eabi-7-2018-q2-update/arm-none-eabi/include/c++/7.3.1/bits/stl_algo.h **** #include <bits/stl_heap.h>
  62:/home/users/aag/code/gcc-arm-none-eabi-7-2018-q2-update/arm-none-eabi/include/c++/7.3.1/bits/stl_algo.h **** #include <bits/stl_tempbuf.h>  // for _Temporary_buffer
  63:/home/users/aag/code/gcc-arm-none-eabi-7-2018-q2-update/arm-none-eabi/include/c++/7.3.1/bits/stl_algo.h **** #include <bits/predefined_ops.h>
  64:/home/users/aag/code/gcc-arm-none-eabi-7-2018-q2-update/arm-none-eabi/include/c++/7.3.1/bits/stl_algo.h **** 
  65:/home/users/aag/code/gcc-arm-none-eabi-7-2018-q2-update/arm-none-eabi/include/c++/7.3.1/bits/stl_algo.h **** #if __cplusplus >= 201103L
  66:/home/users/aag/code/gcc-arm-none-eabi-7-2018-q2-update/arm-none-eabi/include/c++/7.3.1/bits/stl_algo.h **** #include <bits/uniform_int_dist.h>
  67:/home/users/aag/code/gcc-arm-none-eabi-7-2018-q2-update/arm-none-eabi/include/c++/7.3.1/bits/stl_algo.h **** #endif
  68:/home/users/aag/code/gcc-arm-none-eabi-7-2018-q2-update/arm-none-eabi/include/c++/7.3.1/bits/stl_algo.h **** 
  69:/home/users/aag/code/gcc-arm-none-eabi-7-2018-q2-update/arm-none-eabi/include/c++/7.3.1/bits/stl_algo.h **** // See concept_check.h for the __glibcxx_*_requires macros.
  70:/home/users/aag/code/gcc-arm-none-eabi-7-2018-q2-update/arm-none-eabi/include/c++/7.3.1/bits/stl_algo.h **** 
  71:/home/users/aag/code/gcc-arm-none-eabi-7-2018-q2-update/arm-none-eabi/include/c++/7.3.1/bits/stl_algo.h **** namespace std _GLIBCXX_VISIBILITY(default)
  72:/home/users/aag/code/gcc-arm-none-eabi-7-2018-q2-update/arm-none-eabi/include/c++/7.3.1/bits/stl_algo.h **** {
  73:/home/users/aag/code/gcc-arm-none-eabi-7-2018-q2-update/arm-none-eabi/include/c++/7.3.1/bits/stl_algo.h **** _GLIBCXX_BEGIN_NAMESPACE_VERSION
  74:/home/users/aag/code/gcc-arm-none-eabi-7-2018-q2-update/arm-none-eabi/include/c++/7.3.1/bits/stl_algo.h **** 
  75:/home/users/aag/code/gcc-arm-none-eabi-7-2018-q2-update/arm-none-eabi/include/c++/7.3.1/bits/stl_algo.h ****   /// Swaps the median value of *__a, *__b and *__c under __comp to *__result
  76:/home/users/aag/code/gcc-arm-none-eabi-7-2018-q2-update/arm-none-eabi/include/c++/7.3.1/bits/stl_algo.h ****   template<typename _Iterator, typename _Compare>
  77:/home/users/aag/code/gcc-arm-none-eabi-7-2018-q2-update/arm-none-eabi/include/c++/7.3.1/bits/stl_algo.h ****     void
  78:/home/users/aag/code/gcc-arm-none-eabi-7-2018-q2-update/arm-none-eabi/include/c++/7.3.1/bits/stl_algo.h ****     __move_median_to_first(_Iterator __result,_Iterator __a, _Iterator __b,
  79:/home/users/aag/code/gcc-arm-none-eabi-7-2018-q2-update/arm-none-eabi/include/c++/7.3.1/bits/stl_algo.h **** 			   _Iterator __c, _Compare __comp)
  80:/home/users/aag/code/gcc-arm-none-eabi-7-2018-q2-update/arm-none-eabi/include/c++/7.3.1/bits/stl_algo.h ****     {
  81:/home/users/aag/code/gcc-arm-none-eabi-7-2018-q2-update/arm-none-eabi/include/c++/7.3.1/bits/stl_algo.h ****       if (__comp(__a, __b))
  82:/home/users/aag/code/gcc-arm-none-eabi-7-2018-q2-update/arm-none-eabi/include/c++/7.3.1/bits/stl_algo.h **** 	{
  83:/home/users/aag/code/gcc-arm-none-eabi-7-2018-q2-update/arm-none-eabi/include/c++/7.3.1/bits/stl_algo.h **** 	  if (__comp(__b, __c))
  84:/home/users/aag/code/gcc-arm-none-eabi-7-2018-q2-update/arm-none-eabi/include/c++/7.3.1/bits/stl_algo.h **** 	    std::iter_swap(__result, __b);
  85:/home/users/aag/code/gcc-arm-none-eabi-7-2018-q2-update/arm-none-eabi/include/c++/7.3.1/bits/stl_algo.h **** 	  else if (__comp(__a, __c))
  86:/home/users/aag/code/gcc-arm-none-eabi-7-2018-q2-update/arm-none-eabi/include/c++/7.3.1/bits/stl_algo.h **** 	    std::iter_swap(__result, __c);
  87:/home/users/aag/code/gcc-arm-none-eabi-7-2018-q2-update/arm-none-eabi/include/c++/7.3.1/bits/stl_algo.h **** 	  else
  88:/home/users/aag/code/gcc-arm-none-eabi-7-2018-q2-update/arm-none-eabi/include/c++/7.3.1/bits/stl_algo.h **** 	    std::iter_swap(__result, __a);
  89:/home/users/aag/code/gcc-arm-none-eabi-7-2018-q2-update/arm-none-eabi/include/c++/7.3.1/bits/stl_algo.h **** 	}
  90:/home/users/aag/code/gcc-arm-none-eabi-7-2018-q2-update/arm-none-eabi/include/c++/7.3.1/bits/stl_algo.h ****       else if (__comp(__a, __c))
  91:/home/users/aag/code/gcc-arm-none-eabi-7-2018-q2-update/arm-none-eabi/include/c++/7.3.1/bits/stl_algo.h **** 	std::iter_swap(__result, __a);
  92:/home/users/aag/code/gcc-arm-none-eabi-7-2018-q2-update/arm-none-eabi/include/c++/7.3.1/bits/stl_algo.h ****       else if (__comp(__b, __c))
  93:/home/users/aag/code/gcc-arm-none-eabi-7-2018-q2-update/arm-none-eabi/include/c++/7.3.1/bits/stl_algo.h **** 	std::iter_swap(__result, __c);
  94:/home/users/aag/code/gcc-arm-none-eabi-7-2018-q2-update/arm-none-eabi/include/c++/7.3.1/bits/stl_algo.h ****       else
  95:/home/users/aag/code/gcc-arm-none-eabi-7-2018-q2-update/arm-none-eabi/include/c++/7.3.1/bits/stl_algo.h **** 	std::iter_swap(__result, __b);
  96:/home/users/aag/code/gcc-arm-none-eabi-7-2018-q2-update/arm-none-eabi/include/c++/7.3.1/bits/stl_algo.h ****     }
  97:/home/users/aag/code/gcc-arm-none-eabi-7-2018-q2-update/arm-none-eabi/include/c++/7.3.1/bits/stl_algo.h **** 
  98:/home/users/aag/code/gcc-arm-none-eabi-7-2018-q2-update/arm-none-eabi/include/c++/7.3.1/bits/stl_algo.h ****   /// This is an overload used by find algos for the Input Iterator case.
  99:/home/users/aag/code/gcc-arm-none-eabi-7-2018-q2-update/arm-none-eabi/include/c++/7.3.1/bits/stl_algo.h ****   template<typename _InputIterator, typename _Predicate>
 100:/home/users/aag/code/gcc-arm-none-eabi-7-2018-q2-update/arm-none-eabi/include/c++/7.3.1/bits/stl_algo.h ****     inline _InputIterator
 101:/home/users/aag/code/gcc-arm-none-eabi-7-2018-q2-update/arm-none-eabi/include/c++/7.3.1/bits/stl_algo.h ****     __find_if(_InputIterator __first, _InputIterator __last,
 102:/home/users/aag/code/gcc-arm-none-eabi-7-2018-q2-update/arm-none-eabi/include/c++/7.3.1/bits/stl_algo.h **** 	      _Predicate __pred, input_iterator_tag)
 103:/home/users/aag/code/gcc-arm-none-eabi-7-2018-q2-update/arm-none-eabi/include/c++/7.3.1/bits/stl_algo.h ****     {
 104:/home/users/aag/code/gcc-arm-none-eabi-7-2018-q2-update/arm-none-eabi/include/c++/7.3.1/bits/stl_algo.h ****       while (__first != __last && !__pred(__first))
 105:/home/users/aag/code/gcc-arm-none-eabi-7-2018-q2-update/arm-none-eabi/include/c++/7.3.1/bits/stl_algo.h **** 	++__first;
 106:/home/users/aag/code/gcc-arm-none-eabi-7-2018-q2-update/arm-none-eabi/include/c++/7.3.1/bits/stl_algo.h ****       return __first;
 107:/home/users/aag/code/gcc-arm-none-eabi-7-2018-q2-update/arm-none-eabi/include/c++/7.3.1/bits/stl_algo.h ****     }
 108:/home/users/aag/code/gcc-arm-none-eabi-7-2018-q2-update/arm-none-eabi/include/c++/7.3.1/bits/stl_algo.h **** 
ARM GAS  /tmp/ccsVPAmO.s 			page 15


 109:/home/users/aag/code/gcc-arm-none-eabi-7-2018-q2-update/arm-none-eabi/include/c++/7.3.1/bits/stl_algo.h ****   /// This is an overload used by find algos for the RAI case.
 110:/home/users/aag/code/gcc-arm-none-eabi-7-2018-q2-update/arm-none-eabi/include/c++/7.3.1/bits/stl_algo.h ****   template<typename _RandomAccessIterator, typename _Predicate>
 111:/home/users/aag/code/gcc-arm-none-eabi-7-2018-q2-update/arm-none-eabi/include/c++/7.3.1/bits/stl_algo.h ****     _RandomAccessIterator
 112:/home/users/aag/code/gcc-arm-none-eabi-7-2018-q2-update/arm-none-eabi/include/c++/7.3.1/bits/stl_algo.h ****     __find_if(_RandomAccessIterator __first, _RandomAccessIterator __last,
  61              		.loc 2 112 0
  62              		.cfi_startproc
  63              		@ args = 0, pretend = 0, frame = 0
  64              		@ frame_needed = 0, uses_anonymous_args = 0
  65              		@ link register save eliminated.
  66              	.LVL2:
 113:/home/users/aag/code/gcc-arm-none-eabi-7-2018-q2-update/arm-none-eabi/include/c++/7.3.1/bits/stl_algo.h **** 	      _Predicate __pred, random_access_iterator_tag)
 114:/home/users/aag/code/gcc-arm-none-eabi-7-2018-q2-update/arm-none-eabi/include/c++/7.3.1/bits/stl_algo.h ****     {
 115:/home/users/aag/code/gcc-arm-none-eabi-7-2018-q2-update/arm-none-eabi/include/c++/7.3.1/bits/stl_algo.h ****       typename iterator_traits<_RandomAccessIterator>::difference_type
 116:/home/users/aag/code/gcc-arm-none-eabi-7-2018-q2-update/arm-none-eabi/include/c++/7.3.1/bits/stl_algo.h **** 	__trip_count = (__last - __first) >> 2;
  67              		.loc 2 116 0
  68 0000 0B1A     		subs	r3, r1, r0
  69 0002 9B10     		asrs	r3, r3, #2
  70              	.LVL3:
  71              	.L10:
 117:/home/users/aag/code/gcc-arm-none-eabi-7-2018-q2-update/arm-none-eabi/include/c++/7.3.1/bits/stl_algo.h **** 
 118:/home/users/aag/code/gcc-arm-none-eabi-7-2018-q2-update/arm-none-eabi/include/c++/7.3.1/bits/stl_algo.h ****       for (; __trip_count > 0; --__trip_count)
  72              		.loc 2 118 0
  73 0004 002B     		cmp	r3, #0
  74 0006 14DD     		ble	.L5
  75              	.LVL4:
 119:/home/users/aag/code/gcc-arm-none-eabi-7-2018-q2-update/arm-none-eabi/include/c++/7.3.1/bits/stl_algo.h **** 	{
 120:/home/users/aag/code/gcc-arm-none-eabi-7-2018-q2-update/arm-none-eabi/include/c++/7.3.1/bits/stl_algo.h **** 	  if (__pred(__first))
  76              		.loc 2 120 0
  77 0008 0278     		ldrb	r2, [r0]
  78 000a 002A     		cmp	r2, #0
  79 000c 03D0     		beq	.L6
  80              	.LVL5:
 121:/home/users/aag/code/gcc-arm-none-eabi-7-2018-q2-update/arm-none-eabi/include/c++/7.3.1/bits/stl_algo.h **** 	    return __first;
 122:/home/users/aag/code/gcc-arm-none-eabi-7-2018-q2-update/arm-none-eabi/include/c++/7.3.1/bits/stl_algo.h **** 	  ++__first;
 123:/home/users/aag/code/gcc-arm-none-eabi-7-2018-q2-update/arm-none-eabi/include/c++/7.3.1/bits/stl_algo.h **** 
 124:/home/users/aag/code/gcc-arm-none-eabi-7-2018-q2-update/arm-none-eabi/include/c++/7.3.1/bits/stl_algo.h **** 	  if (__pred(__first))
  81              		.loc 2 124 0
  82 000e 4278     		ldrb	r2, [r0, #1]
  83 0010 002A     		cmp	r2, #0
  84 0012 01D1     		bne	.L7
 122:/home/users/aag/code/gcc-arm-none-eabi-7-2018-q2-update/arm-none-eabi/include/c++/7.3.1/bits/stl_algo.h **** 
  85              		.loc 2 122 0
  86 0014 0130     		adds	r0, r0, #1
  87              	.LVL6:
  88              	.L6:
 125:/home/users/aag/code/gcc-arm-none-eabi-7-2018-q2-update/arm-none-eabi/include/c++/7.3.1/bits/stl_algo.h **** 	    return __first;
 126:/home/users/aag/code/gcc-arm-none-eabi-7-2018-q2-update/arm-none-eabi/include/c++/7.3.1/bits/stl_algo.h **** 	  ++__first;
 127:/home/users/aag/code/gcc-arm-none-eabi-7-2018-q2-update/arm-none-eabi/include/c++/7.3.1/bits/stl_algo.h **** 
 128:/home/users/aag/code/gcc-arm-none-eabi-7-2018-q2-update/arm-none-eabi/include/c++/7.3.1/bits/stl_algo.h **** 	  if (__pred(__first))
 129:/home/users/aag/code/gcc-arm-none-eabi-7-2018-q2-update/arm-none-eabi/include/c++/7.3.1/bits/stl_algo.h **** 	    return __first;
 130:/home/users/aag/code/gcc-arm-none-eabi-7-2018-q2-update/arm-none-eabi/include/c++/7.3.1/bits/stl_algo.h **** 	  ++__first;
 131:/home/users/aag/code/gcc-arm-none-eabi-7-2018-q2-update/arm-none-eabi/include/c++/7.3.1/bits/stl_algo.h **** 
 132:/home/users/aag/code/gcc-arm-none-eabi-7-2018-q2-update/arm-none-eabi/include/c++/7.3.1/bits/stl_algo.h **** 	  if (__pred(__first))
 133:/home/users/aag/code/gcc-arm-none-eabi-7-2018-q2-update/arm-none-eabi/include/c++/7.3.1/bits/stl_algo.h **** 	    return __first;
 134:/home/users/aag/code/gcc-arm-none-eabi-7-2018-q2-update/arm-none-eabi/include/c++/7.3.1/bits/stl_algo.h **** 	  ++__first;
 135:/home/users/aag/code/gcc-arm-none-eabi-7-2018-q2-update/arm-none-eabi/include/c++/7.3.1/bits/stl_algo.h **** 	}
 136:/home/users/aag/code/gcc-arm-none-eabi-7-2018-q2-update/arm-none-eabi/include/c++/7.3.1/bits/stl_algo.h **** 
ARM GAS  /tmp/ccsVPAmO.s 			page 16


 137:/home/users/aag/code/gcc-arm-none-eabi-7-2018-q2-update/arm-none-eabi/include/c++/7.3.1/bits/stl_algo.h ****       switch (__last - __first)
 138:/home/users/aag/code/gcc-arm-none-eabi-7-2018-q2-update/arm-none-eabi/include/c++/7.3.1/bits/stl_algo.h **** 	{
 139:/home/users/aag/code/gcc-arm-none-eabi-7-2018-q2-update/arm-none-eabi/include/c++/7.3.1/bits/stl_algo.h **** 	case 3:
 140:/home/users/aag/code/gcc-arm-none-eabi-7-2018-q2-update/arm-none-eabi/include/c++/7.3.1/bits/stl_algo.h **** 	  if (__pred(__first))
 141:/home/users/aag/code/gcc-arm-none-eabi-7-2018-q2-update/arm-none-eabi/include/c++/7.3.1/bits/stl_algo.h **** 	    return __first;
 142:/home/users/aag/code/gcc-arm-none-eabi-7-2018-q2-update/arm-none-eabi/include/c++/7.3.1/bits/stl_algo.h **** 	  ++__first;
 143:/home/users/aag/code/gcc-arm-none-eabi-7-2018-q2-update/arm-none-eabi/include/c++/7.3.1/bits/stl_algo.h **** 	case 2:
 144:/home/users/aag/code/gcc-arm-none-eabi-7-2018-q2-update/arm-none-eabi/include/c++/7.3.1/bits/stl_algo.h **** 	  if (__pred(__first))
 145:/home/users/aag/code/gcc-arm-none-eabi-7-2018-q2-update/arm-none-eabi/include/c++/7.3.1/bits/stl_algo.h **** 	    return __first;
 146:/home/users/aag/code/gcc-arm-none-eabi-7-2018-q2-update/arm-none-eabi/include/c++/7.3.1/bits/stl_algo.h **** 	  ++__first;
 147:/home/users/aag/code/gcc-arm-none-eabi-7-2018-q2-update/arm-none-eabi/include/c++/7.3.1/bits/stl_algo.h **** 	case 1:
 148:/home/users/aag/code/gcc-arm-none-eabi-7-2018-q2-update/arm-none-eabi/include/c++/7.3.1/bits/stl_algo.h **** 	  if (__pred(__first))
 149:/home/users/aag/code/gcc-arm-none-eabi-7-2018-q2-update/arm-none-eabi/include/c++/7.3.1/bits/stl_algo.h **** 	    return __first;
 150:/home/users/aag/code/gcc-arm-none-eabi-7-2018-q2-update/arm-none-eabi/include/c++/7.3.1/bits/stl_algo.h **** 	  ++__first;
 151:/home/users/aag/code/gcc-arm-none-eabi-7-2018-q2-update/arm-none-eabi/include/c++/7.3.1/bits/stl_algo.h **** 	case 0:
 152:/home/users/aag/code/gcc-arm-none-eabi-7-2018-q2-update/arm-none-eabi/include/c++/7.3.1/bits/stl_algo.h **** 	default:
 153:/home/users/aag/code/gcc-arm-none-eabi-7-2018-q2-update/arm-none-eabi/include/c++/7.3.1/bits/stl_algo.h **** 	  return __last;
 154:/home/users/aag/code/gcc-arm-none-eabi-7-2018-q2-update/arm-none-eabi/include/c++/7.3.1/bits/stl_algo.h **** 	}
 155:/home/users/aag/code/gcc-arm-none-eabi-7-2018-q2-update/arm-none-eabi/include/c++/7.3.1/bits/stl_algo.h ****     }
  89              		.loc 2 155 0
  90              		@ sp needed
  91 0016 7047     		bx	lr
  92              	.LVL7:
  93              	.L7:
 128:/home/users/aag/code/gcc-arm-none-eabi-7-2018-q2-update/arm-none-eabi/include/c++/7.3.1/bits/stl_algo.h **** 	    return __first;
  94              		.loc 2 128 0
  95 0018 8278     		ldrb	r2, [r0, #2]
  96 001a 002A     		cmp	r2, #0
  97 001c 01D1     		bne	.L8
 126:/home/users/aag/code/gcc-arm-none-eabi-7-2018-q2-update/arm-none-eabi/include/c++/7.3.1/bits/stl_algo.h **** 
  98              		.loc 2 126 0
  99 001e 0230     		adds	r0, r0, #2
 100              	.LVL8:
 101 0020 F9E7     		b	.L6
 102              	.LVL9:
 103              	.L8:
 132:/home/users/aag/code/gcc-arm-none-eabi-7-2018-q2-update/arm-none-eabi/include/c++/7.3.1/bits/stl_algo.h **** 	    return __first;
 104              		.loc 2 132 0
 105 0022 C278     		ldrb	r2, [r0, #3]
 106 0024 002A     		cmp	r2, #0
 107 0026 01D1     		bne	.L9
 130:/home/users/aag/code/gcc-arm-none-eabi-7-2018-q2-update/arm-none-eabi/include/c++/7.3.1/bits/stl_algo.h **** 
 108              		.loc 2 130 0
 109 0028 0330     		adds	r0, r0, #3
 110              	.LVL10:
 111 002a F4E7     		b	.L6
 112              	.LVL11:
 113              	.L9:
 114 002c 0430     		adds	r0, r0, #4
 115              	.LVL12:
 118:/home/users/aag/code/gcc-arm-none-eabi-7-2018-q2-update/arm-none-eabi/include/c++/7.3.1/bits/stl_algo.h **** 	{
 116              		.loc 2 118 0
 117 002e 013B     		subs	r3, r3, #1
 118              	.LVL13:
 119 0030 E8E7     		b	.L10
 120              	.LVL14:
 121              	.L5:
ARM GAS  /tmp/ccsVPAmO.s 			page 17


 137:/home/users/aag/code/gcc-arm-none-eabi-7-2018-q2-update/arm-none-eabi/include/c++/7.3.1/bits/stl_algo.h **** 	{
 122              		.loc 2 137 0
 123 0032 0B1A     		subs	r3, r1, r0
 124              	.LVL15:
 125 0034 022B     		cmp	r3, #2
 126 0036 0CD0     		beq	.L11
 127 0038 032B     		cmp	r3, #3
 128 003a 06D0     		beq	.L12
 129 003c 012B     		cmp	r3, #1
 130 003e 02D1     		bne	.L33
 131              	.L13:
 132              	.LVL16:
 148:/home/users/aag/code/gcc-arm-none-eabi-7-2018-q2-update/arm-none-eabi/include/c++/7.3.1/bits/stl_algo.h **** 	    return __first;
 133              		.loc 2 148 0
 134 0040 0378     		ldrb	r3, [r0]
 135 0042 002B     		cmp	r3, #0
 136 0044 E7D0     		beq	.L6
 137              	.LVL17:
 138              	.L33:
 153:/home/users/aag/code/gcc-arm-none-eabi-7-2018-q2-update/arm-none-eabi/include/c++/7.3.1/bits/stl_algo.h **** 	}
 139              		.loc 2 153 0
 140 0046 0800     		movs	r0, r1
 141              	.LVL18:
 142 0048 E5E7     		b	.L6
 143              	.LVL19:
 144              	.L12:
 140:/home/users/aag/code/gcc-arm-none-eabi-7-2018-q2-update/arm-none-eabi/include/c++/7.3.1/bits/stl_algo.h **** 	    return __first;
 145              		.loc 2 140 0
 146 004a 0378     		ldrb	r3, [r0]
 147 004c 002B     		cmp	r3, #0
 148 004e E2D0     		beq	.L6
 142:/home/users/aag/code/gcc-arm-none-eabi-7-2018-q2-update/arm-none-eabi/include/c++/7.3.1/bits/stl_algo.h **** 	case 2:
 149              		.loc 2 142 0
 150 0050 0130     		adds	r0, r0, #1
 151              	.LVL20:
 152              	.L11:
 144:/home/users/aag/code/gcc-arm-none-eabi-7-2018-q2-update/arm-none-eabi/include/c++/7.3.1/bits/stl_algo.h **** 	    return __first;
 153              		.loc 2 144 0
 154 0052 0378     		ldrb	r3, [r0]
 155 0054 002B     		cmp	r3, #0
 156 0056 DED0     		beq	.L6
 146:/home/users/aag/code/gcc-arm-none-eabi-7-2018-q2-update/arm-none-eabi/include/c++/7.3.1/bits/stl_algo.h **** 	case 1:
 157              		.loc 2 146 0
 158 0058 0130     		adds	r0, r0, #1
 159              	.LVL21:
 160 005a F1E7     		b	.L13
 161              		.cfi_endproc
 162              	.LFE5744:
 164              		.section	.text._ZSt9__find_ifIPbN9__gnu_cxx5__ops10_Iter_predIZN18Flash_updater_implIZ4mainE10Flas
 165              		.align	1
 166              		.syntax unified
 167              		.code	16
 168              		.thumb_func
 169              		.fpu softvfp
 171              	_ZSt9__find_ifIPbN9__gnu_cxx5__ops10_Iter_predIZN18Flash_updater_implIZ4mainE10Flash_dataJLN3mcu5FL
 172              	.LFB5755:
 112:/home/users/aag/code/gcc-arm-none-eabi-7-2018-q2-update/arm-none-eabi/include/c++/7.3.1/bits/stl_algo.h **** 	      _Predicate __pred, random_access_iterator_tag)
ARM GAS  /tmp/ccsVPAmO.s 			page 18


 173              		.loc 2 112 0
 174              		.cfi_startproc
 175              		@ args = 0, pretend = 0, frame = 0
 176              		@ frame_needed = 0, uses_anonymous_args = 0
 177              		@ link register save eliminated.
 178              	.LVL22:
 116:/home/users/aag/code/gcc-arm-none-eabi-7-2018-q2-update/arm-none-eabi/include/c++/7.3.1/bits/stl_algo.h **** 
 179              		.loc 2 116 0
 180 0000 0B1A     		subs	r3, r1, r0
 181 0002 9B10     		asrs	r3, r3, #2
 182              	.LVL23:
 183              	.L40:
 118:/home/users/aag/code/gcc-arm-none-eabi-7-2018-q2-update/arm-none-eabi/include/c++/7.3.1/bits/stl_algo.h **** 	{
 184              		.loc 2 118 0
 185 0004 002B     		cmp	r3, #0
 186 0006 14DD     		ble	.L35
 187              	.LVL24:
 120:/home/users/aag/code/gcc-arm-none-eabi-7-2018-q2-update/arm-none-eabi/include/c++/7.3.1/bits/stl_algo.h **** 	    return __first;
 188              		.loc 2 120 0
 189 0008 0278     		ldrb	r2, [r0]
 190 000a 002A     		cmp	r2, #0
 191 000c 03D1     		bne	.L36
 192              	.LVL25:
 124:/home/users/aag/code/gcc-arm-none-eabi-7-2018-q2-update/arm-none-eabi/include/c++/7.3.1/bits/stl_algo.h **** 	    return __first;
 193              		.loc 2 124 0
 194 000e 4278     		ldrb	r2, [r0, #1]
 195 0010 002A     		cmp	r2, #0
 196 0012 01D0     		beq	.L37
 122:/home/users/aag/code/gcc-arm-none-eabi-7-2018-q2-update/arm-none-eabi/include/c++/7.3.1/bits/stl_algo.h **** 
 197              		.loc 2 122 0
 198 0014 0130     		adds	r0, r0, #1
 199              	.LVL26:
 200              	.L36:
 201              		.loc 2 155 0
 202              		@ sp needed
 203 0016 7047     		bx	lr
 204              	.LVL27:
 205              	.L37:
 128:/home/users/aag/code/gcc-arm-none-eabi-7-2018-q2-update/arm-none-eabi/include/c++/7.3.1/bits/stl_algo.h **** 	    return __first;
 206              		.loc 2 128 0
 207 0018 8278     		ldrb	r2, [r0, #2]
 208 001a 002A     		cmp	r2, #0
 209 001c 01D0     		beq	.L38
 126:/home/users/aag/code/gcc-arm-none-eabi-7-2018-q2-update/arm-none-eabi/include/c++/7.3.1/bits/stl_algo.h **** 
 210              		.loc 2 126 0
 211 001e 0230     		adds	r0, r0, #2
 212              	.LVL28:
 213 0020 F9E7     		b	.L36
 214              	.LVL29:
 215              	.L38:
 132:/home/users/aag/code/gcc-arm-none-eabi-7-2018-q2-update/arm-none-eabi/include/c++/7.3.1/bits/stl_algo.h **** 	    return __first;
 216              		.loc 2 132 0
 217 0022 C278     		ldrb	r2, [r0, #3]
 218 0024 002A     		cmp	r2, #0
 219 0026 01D0     		beq	.L39
 130:/home/users/aag/code/gcc-arm-none-eabi-7-2018-q2-update/arm-none-eabi/include/c++/7.3.1/bits/stl_algo.h **** 
 220              		.loc 2 130 0
ARM GAS  /tmp/ccsVPAmO.s 			page 19


 221 0028 0330     		adds	r0, r0, #3
 222              	.LVL30:
 223 002a F4E7     		b	.L36
 224              	.LVL31:
 225              	.L39:
 226 002c 0430     		adds	r0, r0, #4
 227              	.LVL32:
 118:/home/users/aag/code/gcc-arm-none-eabi-7-2018-q2-update/arm-none-eabi/include/c++/7.3.1/bits/stl_algo.h **** 	{
 228              		.loc 2 118 0
 229 002e 013B     		subs	r3, r3, #1
 230              	.LVL33:
 231 0030 E8E7     		b	.L40
 232              	.LVL34:
 233              	.L35:
 137:/home/users/aag/code/gcc-arm-none-eabi-7-2018-q2-update/arm-none-eabi/include/c++/7.3.1/bits/stl_algo.h **** 	{
 234              		.loc 2 137 0
 235 0032 0B1A     		subs	r3, r1, r0
 236              	.LVL35:
 237 0034 022B     		cmp	r3, #2
 238 0036 0CD0     		beq	.L41
 239 0038 032B     		cmp	r3, #3
 240 003a 06D0     		beq	.L42
 241 003c 012B     		cmp	r3, #1
 242 003e 02D1     		bne	.L51
 243              	.L43:
 244              	.LVL36:
 148:/home/users/aag/code/gcc-arm-none-eabi-7-2018-q2-update/arm-none-eabi/include/c++/7.3.1/bits/stl_algo.h **** 	    return __first;
 245              		.loc 2 148 0
 246 0040 0378     		ldrb	r3, [r0]
 247 0042 002B     		cmp	r3, #0
 248 0044 E7D1     		bne	.L36
 249              	.LVL37:
 250              	.L51:
 153:/home/users/aag/code/gcc-arm-none-eabi-7-2018-q2-update/arm-none-eabi/include/c++/7.3.1/bits/stl_algo.h **** 	}
 251              		.loc 2 153 0
 252 0046 0800     		movs	r0, r1
 253              	.LVL38:
 254 0048 E5E7     		b	.L36
 255              	.LVL39:
 256              	.L42:
 140:/home/users/aag/code/gcc-arm-none-eabi-7-2018-q2-update/arm-none-eabi/include/c++/7.3.1/bits/stl_algo.h **** 	    return __first;
 257              		.loc 2 140 0
 258 004a 0378     		ldrb	r3, [r0]
 259 004c 002B     		cmp	r3, #0
 260 004e E2D1     		bne	.L36
 142:/home/users/aag/code/gcc-arm-none-eabi-7-2018-q2-update/arm-none-eabi/include/c++/7.3.1/bits/stl_algo.h **** 	case 2:
 261              		.loc 2 142 0
 262 0050 0130     		adds	r0, r0, #1
 263              	.LVL40:
 264              	.L41:
 144:/home/users/aag/code/gcc-arm-none-eabi-7-2018-q2-update/arm-none-eabi/include/c++/7.3.1/bits/stl_algo.h **** 	    return __first;
 265              		.loc 2 144 0
 266 0052 0378     		ldrb	r3, [r0]
 267 0054 002B     		cmp	r3, #0
 268 0056 DED1     		bne	.L36
 146:/home/users/aag/code/gcc-arm-none-eabi-7-2018-q2-update/arm-none-eabi/include/c++/7.3.1/bits/stl_algo.h **** 	case 1:
 269              		.loc 2 146 0
ARM GAS  /tmp/ccsVPAmO.s 			page 20


 270 0058 0130     		adds	r0, r0, #1
 271              	.LVL41:
 272 005a F1E7     		b	.L43
 273              		.cfi_endproc
 274              	.LFE5755:
 276              		.thumb_set _ZSt9__find_ifIPbN9__gnu_cxx5__ops10_Iter_predIZN18Flash_updater_implIZ4mainE10Flash_da
 277              		.section	.text._ZN9Interrupt9interruptEv.isra.54,"ax",%progbits
 278              		.align	1
 279              		.syntax unified
 280              		.code	16
 281              		.thumb_func
 282              		.fpu softvfp
 284              	_ZN9Interrupt9interruptEv.isra.54:
 285              	.LFB5792:
 286              		.file 3 "../mculib3/src/interrupt.h"
   1:../mculib3/src/interrupt.h **** #pragma once
   2:../mculib3/src/interrupt.h **** 
   3:../mculib3/src/interrupt.h **** #include "periph.h"
   4:../mculib3/src/interrupt.h **** 
   5:../mculib3/src/interrupt.h **** #if defined(USE_MOCK_NVIC)
   6:../mculib3/src/interrupt.h ****     inline static auto NVIC_EnableIRQ_t = mock::NVIC_EnableIRQ;
   7:../mculib3/src/interrupt.h **** #else
   8:../mculib3/src/interrupt.h ****     inline static auto NVIC_EnableIRQ_t = ::NVIC_EnableIRQ;
   9:../mculib3/src/interrupt.h **** #endif
  10:../mculib3/src/interrupt.h **** 
  11:../mculib3/src/interrupt.h **** ///     
  12:../mculib3/src/interrupt.h **** struct Interrupting
  13:../mculib3/src/interrupt.h **** {
  14:../mculib3/src/interrupt.h ****     Interrupting* next {nullptr};
  15:../mculib3/src/interrupt.h ****     virtual void interrupt() = 0;
  16:../mculib3/src/interrupt.h **** };
  17:../mculib3/src/interrupt.h **** 
  18:../mculib3/src/interrupt.h **** class Interrupt 
  19:../mculib3/src/interrupt.h **** {
  20:../mculib3/src/interrupt.h ****     Interrupting* first{nullptr};
  21:../mculib3/src/interrupt.h ****     const IRQn_Type irq_n;
  22:../mculib3/src/interrupt.h **** 
  23:../mculib3/src/interrupt.h **** public:
  24:../mculib3/src/interrupt.h ****     Interrupt (IRQn_Type irq_n) : irq_n {irq_n} {}
  25:../mculib3/src/interrupt.h **** 
  26:../mculib3/src/interrupt.h ****     auto IRQn() const { return irq_n; }
  27:../mculib3/src/interrupt.h **** 
  28:../mculib3/src/interrupt.h ****     void enable() { NVIC_EnableIRQ_t(irq_n); }
  29:../mculib3/src/interrupt.h **** 
  30:../mculib3/src/interrupt.h ****     void subscribe(Interrupting* ps)
  31:../mculib3/src/interrupt.h ****     {
  32:../mculib3/src/interrupt.h ****         auto p = first;
  33:../mculib3/src/interrupt.h ****         if (p) {
  34:../mculib3/src/interrupt.h ****             while (p->next)
  35:../mculib3/src/interrupt.h ****                 p = p->next;
  36:../mculib3/src/interrupt.h ****             p->next = ps;
  37:../mculib3/src/interrupt.h ****         } else {  
  38:../mculib3/src/interrupt.h ****             first = ps;
  39:../mculib3/src/interrupt.h ****         } 
  40:../mculib3/src/interrupt.h ****     }
  41:../mculib3/src/interrupt.h **** 
  42:../mculib3/src/interrupt.h ****     void clear_subscribe() { first = nullptr; }
ARM GAS  /tmp/ccsVPAmO.s 			page 21


  43:../mculib3/src/interrupt.h **** 
  44:../mculib3/src/interrupt.h ****     void interrupt()
 287              		.loc 3 44 0
 288              		.cfi_startproc
 289              		@ args = 0, pretend = 0, frame = 0
 290              		@ frame_needed = 0, uses_anonymous_args = 0
 291 0000 10B5     		push	{r4, lr}
 292              	.LCFI0:
 293              		.cfi_def_cfa_offset 8
 294              		.cfi_offset 4, -8
 295              		.cfi_offset 14, -4
 296 0002 0400     		movs	r4, r0
 297              	.L54:
 298              	.LVL42:
  45:../mculib3/src/interrupt.h ****     {
  46:../mculib3/src/interrupt.h ****         auto p = first;
  47:../mculib3/src/interrupt.h ****         while (p) {
 299              		.loc 3 47 0
 300 0004 002C     		cmp	r4, #0
 301 0006 05D0     		beq	.L52
  48:../mculib3/src/interrupt.h ****             p->interrupt();
 302              		.loc 3 48 0
 303 0008 2368     		ldr	r3, [r4]
 304 000a 2000     		movs	r0, r4
 305 000c 1B68     		ldr	r3, [r3]
 306 000e 9847     		blx	r3
 307              	.LVL43:
  49:../mculib3/src/interrupt.h ****             p = p->next;
 308              		.loc 3 49 0
 309 0010 6468     		ldr	r4, [r4, #4]
 310              	.LVL44:
 311 0012 F7E7     		b	.L54
 312              	.L52:
  50:../mculib3/src/interrupt.h ****         }
  51:../mculib3/src/interrupt.h ****     }
 313              		.loc 3 51 0
 314              		@ sp needed
 315              	.LVL45:
 316 0014 10BD     		pop	{r4, pc}
 317              		.cfi_endproc
 318              	.LFE5792:
 320              		.section	.text._ZN3mcu5FLASH6unlockEv,"ax",%progbits
 321              		.align	1
 322              		.global	_ZN3mcu5FLASH6unlockEv
 323              		.syntax unified
 324              		.code	16
 325              		.thumb_func
 326              		.fpu softvfp
 328              	_ZN3mcu5FLASH6unlockEv:
 329              	.LFB91:
 330              		.file 4 "../mculib3/src/periph/flash_f0.h"
   1:../mculib3/src/periph/flash_f0.h **** #pragma once
   2:../mculib3/src/periph/flash_f0.h **** 
   3:../mculib3/src/periph/flash_f0.h **** #include "bits_flash_f0.h"
   4:../mculib3/src/periph/flash_f0.h **** 
   5:../mculib3/src/periph/flash_f0.h **** namespace mcu {
   6:../mculib3/src/periph/flash_f0.h **** 
ARM GAS  /tmp/ccsVPAmO.s 			page 22


   7:../mculib3/src/periph/flash_f0.h **** class FLASH {
   8:../mculib3/src/periph/flash_f0.h **** protected:
   9:../mculib3/src/periph/flash_f0.h ****    volatile FLASH_bits::ACR ACR;      // FLASH access control register, offset: 0x00
  10:../mculib3/src/periph/flash_f0.h ****    volatile uint32_t        KEYR;     // FLASH key register,            offset: 0x04
  11:../mculib3/src/periph/flash_f0.h ****    volatile uint32_t        OPTKEYR;  // FLASH OPT key register,        offset: 0x08
  12:../mculib3/src/periph/flash_f0.h ****    volatile FLASH_bits::SR  SR;       // FLASH status register,         offset: 0x0C
  13:../mculib3/src/periph/flash_f0.h ****    volatile FLASH_bits::CR  CR;       // FLASH control register,        offset: 0x10
  14:../mculib3/src/periph/flash_f0.h ****    volatile uint32_t        AR;       // FLASH address register,        offset: 0x14
  15:../mculib3/src/periph/flash_f0.h ****    volatile uint32_t        RESERVED; //  Reserved,                             0x18
  16:../mculib3/src/periph/flash_f0.h ****    volatile uint32_t        OBR;      // FLASH option bytes register,   offset: 0x1C
  17:../mculib3/src/periph/flash_f0.h ****    volatile uint32_t        WRPR;     // FLASH option bytes register,   offset: 0x20
  18:../mculib3/src/periph/flash_f0.h **** public:
  19:../mculib3/src/periph/flash_f0.h ****    using CMSIS_type   = FLASH_TypeDef;
  20:../mculib3/src/periph/flash_f0.h ****    using Latency      = FLASH_bits::ACR::Latency;
  21:../mculib3/src/periph/flash_f0.h ****    ///   ,    
  22:../mculib3/src/periph/flash_f0.h ****    enum Sector { _0, _1, _2, _3, _4, _5, _6, _7, _8, _9,
  23:../mculib3/src/periph/flash_f0.h ****                 _10,_11,_12,_13,_14,_15,_16,_17,_18,_19,
  24:../mculib3/src/periph/flash_f0.h ****                 _20,_21,_22,_23,_24,_25,_26,_27,_28,_29,
  25:../mculib3/src/periph/flash_f0.h ****                 _30,_31
  26:../mculib3/src/periph/flash_f0.h ****    };
  27:../mculib3/src/periph/flash_f0.h **** 
  28:../mculib3/src/periph/flash_f0.h ****    auto& like_CMSIS() { return *reinterpret_cast<CMSIS_type*>(this); }
  29:../mculib3/src/periph/flash_f0.h **** 
  30:../mculib3/src/periph/flash_f0.h ****    FLASH& set (Latency v)            { ACR.LATENCY = v;    return *this; }
  31:../mculib3/src/periph/flash_f0.h ****    FLASH& lock()                     { CR.LOCK     = true; return *this; }
  32:../mculib3/src/periph/flash_f0.h ****    bool   is_lock()                  { return CR.LOCK;                   }
  33:../mculib3/src/periph/flash_f0.h ****    FLASH& unlock();
  34:../mculib3/src/periph/flash_f0.h ****    FLASH& set_progMode()             { CR.PER = false; CR.PG = true; return *this; }
  35:../mculib3/src/periph/flash_f0.h ****    bool   is_endOfProg()             { return SR.EOP;                    }
  36:../mculib3/src/periph/flash_f0.h ****    FLASH& clear_flag_endOfProg()     { SR.EOP      = true; return *this; }
  37:../mculib3/src/periph/flash_f0.h ****    bool   is_busy()                  { return SR.BSY;                    }
  38:../mculib3/src/periph/flash_f0.h ****    FLASH& en_interrupt_endOfProg()   { CR.EOPIE    = true; return *this; }
  39:../mculib3/src/periph/flash_f0.h ****    FLASH& start_erase(Sector);
  40:../mculib3/src/periph/flash_f0.h ****    static constexpr size_t address(Sector s) { return 0x08000000 + 1024 * s; }
  41:../mculib3/src/periph/flash_f0.h **** 
  42:../mculib3/src/periph/flash_f0.h ****    template<Sector> FLASH& start_erase();
  43:../mculib3/src/periph/flash_f0.h **** 
  44:../mculib3/src/periph/flash_f0.h ****    template<Sector s> static constexpr size_t address() { return 0x08000000 + 1024 * s; }
  45:../mculib3/src/periph/flash_f0.h ****    template<Sector>   static constexpr size_t size()    { return 1024; }
  46:../mculib3/src/periph/flash_f0.h **** };
  47:../mculib3/src/periph/flash_f0.h **** 
  48:../mculib3/src/periph/flash_f0.h **** 
  49:../mculib3/src/periph/flash_f0.h **** #if not defined(USE_MOCK_FLASH)
  50:../mculib3/src/periph/flash_f0.h **** template<Periph p> std::enable_if_t<p == Periph::FLASH, FLASH&> make_reference() { return *reinterp
  51:../mculib3/src/periph/flash_f0.h **** #endif
  52:../mculib3/src/periph/flash_f0.h **** 
  53:../mculib3/src/periph/flash_f0.h **** 
  54:../mculib3/src/periph/flash_f0.h **** 
  55:../mculib3/src/periph/flash_f0.h **** 
  56:../mculib3/src/periph/flash_f0.h **** 
  57:../mculib3/src/periph/flash_f0.h **** 
  58:../mculib3/src/periph/flash_f0.h **** 
  59:../mculib3/src/periph/flash_f0.h **** FLASH& FLASH::unlock()
  60:../mculib3/src/periph/flash_f0.h **** {
 331              		.loc 4 60 0
 332              		.cfi_startproc
 333              		@ args = 0, pretend = 0, frame = 0
ARM GAS  /tmp/ccsVPAmO.s 			page 23


 334              		@ frame_needed = 0, uses_anonymous_args = 0
 335              		@ link register save eliminated.
 336              	.LVL46:
 337              	.LBB3072:
 338              	.LBB3073:
  32:../mculib3/src/periph/flash_f0.h ****    FLASH& unlock();
 339              		.loc 4 32 0
 340 0000 0369     		ldr	r3, [r0, #16]
 341              	.LBE3073:
 342              	.LBE3072:
  61:../mculib3/src/periph/flash_f0.h ****    constexpr uint32_t Key1 = 0x45670123;
  62:../mculib3/src/periph/flash_f0.h ****    constexpr uint32_t Key2 = 0xCDEF89AB;
  63:../mculib3/src/periph/flash_f0.h ****    if (is_lock()) {
 343              		.loc 4 63 0
 344 0002 1B06     		lsls	r3, r3, #24
 345 0004 03D5     		bpl	.L56
  64:../mculib3/src/periph/flash_f0.h ****       KEYR = Key1;
 346              		.loc 4 64 0
 347 0006 024B     		ldr	r3, .L60
 348 0008 4360     		str	r3, [r0, #4]
  65:../mculib3/src/periph/flash_f0.h ****       IF_TEST_WAIT_MS(10);
  66:../mculib3/src/periph/flash_f0.h ****       KEYR = Key2;
 349              		.loc 4 66 0
 350 000a 024B     		ldr	r3, .L60+4
 351 000c 4360     		str	r3, [r0, #4]
 352              	.L56:
  67:../mculib3/src/periph/flash_f0.h ****    }
  68:../mculib3/src/periph/flash_f0.h ****    return *this;
  69:../mculib3/src/periph/flash_f0.h **** }
 353              		.loc 4 69 0
 354              		@ sp needed
 355 000e 7047     		bx	lr
 356              	.L61:
 357              		.align	2
 358              	.L60:
 359 0010 23016745 		.word	1164378403
 360 0014 AB89EFCD 		.word	-839939669
 361              		.cfi_endproc
 362              	.LFE91:
 364              		.section	.text._ZN3mcu5FLASH11start_eraseENS0_6SectorE,"ax",%progbits
 365              		.align	1
 366              		.global	_ZN3mcu5FLASH11start_eraseENS0_6SectorE
 367              		.syntax unified
 368              		.code	16
 369              		.thumb_func
 370              		.fpu softvfp
 372              	_ZN3mcu5FLASH11start_eraseENS0_6SectorE:
 373              	.LFB93:
  70:../mculib3/src/periph/flash_f0.h **** 
  71:../mculib3/src/periph/flash_f0.h **** 
  72:../mculib3/src/periph/flash_f0.h **** template<FLASH::Sector s>
  73:../mculib3/src/periph/flash_f0.h **** FLASH& FLASH::start_erase()
  74:../mculib3/src/periph/flash_f0.h **** {
  75:../mculib3/src/periph/flash_f0.h ****    CR.PG   = false;
  76:../mculib3/src/periph/flash_f0.h ****    CR.PER  = true;
  77:../mculib3/src/periph/flash_f0.h ****    IF_TEST_WAIT_MS(1);
  78:../mculib3/src/periph/flash_f0.h ****    AR = address<s>();
ARM GAS  /tmp/ccsVPAmO.s 			page 24


  79:../mculib3/src/periph/flash_f0.h ****    IF_TEST_WAIT_MS(1);
  80:../mculib3/src/periph/flash_f0.h ****    CR.STRT = true;
  81:../mculib3/src/periph/flash_f0.h ****    return *this;
  82:../mculib3/src/periph/flash_f0.h **** }
  83:../mculib3/src/periph/flash_f0.h **** 
  84:../mculib3/src/periph/flash_f0.h **** FLASH& FLASH::start_erase(FLASH::Sector s)
  85:../mculib3/src/periph/flash_f0.h **** {
 374              		.loc 4 85 0
 375              		.cfi_startproc
 376              		@ args = 0, pretend = 0, frame = 0
 377              		@ frame_needed = 0, uses_anonymous_args = 0
 378              		@ link register save eliminated.
 379              	.LVL47:
  86:../mculib3/src/periph/flash_f0.h ****    CR.PG   = false;
 380              		.loc 4 86 0
 381 0000 0122     		movs	r2, #1
 382 0002 0369     		ldr	r3, [r0, #16]
  87:../mculib3/src/periph/flash_f0.h ****    CR.PER  = true;
  88:../mculib3/src/periph/flash_f0.h ****    IF_TEST_WAIT_MS(1);
  89:../mculib3/src/periph/flash_f0.h ****    AR = address(s);
  90:../mculib3/src/periph/flash_f0.h ****    IF_TEST_WAIT_MS(1);
  91:../mculib3/src/periph/flash_f0.h ****    CR.STRT = true;
  92:../mculib3/src/periph/flash_f0.h ****    return *this;
  93:../mculib3/src/periph/flash_f0.h **** }
 383              		.loc 4 93 0
 384              		@ sp needed
  86:../mculib3/src/periph/flash_f0.h ****    CR.PG   = false;
 385              		.loc 4 86 0
 386 0004 9343     		bics	r3, r2
 387 0006 0361     		str	r3, [r0, #16]
  87:../mculib3/src/periph/flash_f0.h ****    CR.PER  = true;
 388              		.loc 4 87 0
 389 0008 0223     		movs	r3, #2
 390 000a 0269     		ldr	r2, [r0, #16]
 391 000c 1343     		orrs	r3, r2
 392 000e 0361     		str	r3, [r0, #16]
 393              	.LVL48:
 394              	.LBB3074:
 395              	.LBB3075:
  40:../mculib3/src/periph/flash_f0.h **** 
 396              		.loc 4 40 0
 397 0010 8023     		movs	r3, #128
 398 0012 9B02     		lsls	r3, r3, #10
 399 0014 C918     		adds	r1, r1, r3
 400              	.LVL49:
 401              	.LBE3075:
 402              	.LBE3074:
  91:../mculib3/src/periph/flash_f0.h ****    return *this;
 403              		.loc 4 91 0
 404 0016 4023     		movs	r3, #64
 405              	.LBB3077:
 406              	.LBB3076:
  40:../mculib3/src/periph/flash_f0.h **** 
 407              		.loc 4 40 0
 408 0018 8902     		lsls	r1, r1, #10
 409              	.LVL50:
 410              	.LBE3076:
ARM GAS  /tmp/ccsVPAmO.s 			page 25


 411              	.LBE3077:
  89:../mculib3/src/periph/flash_f0.h ****    IF_TEST_WAIT_MS(1);
 412              		.loc 4 89 0
 413 001a 4161     		str	r1, [r0, #20]
  91:../mculib3/src/periph/flash_f0.h ****    return *this;
 414              		.loc 4 91 0
 415 001c 0269     		ldr	r2, [r0, #16]
 416 001e 1343     		orrs	r3, r2
 417 0020 0361     		str	r3, [r0, #16]
 418              		.loc 4 93 0
 419 0022 7047     		bx	lr
 420              		.cfi_endproc
 421              	.LFE93:
 423              		.section	.text._ZN18Flash_updater_implIZ4mainE10Flash_dataJLN3mcu5FLASH6SectorE26ELS3_25EEE6notify
 424              		.align	1
 425              		.syntax unified
 426              		.code	16
 427              		.thumb_func
 428              		.fpu softvfp
 430              	_ZN18Flash_updater_implIZ4mainE10Flash_dataJLN3mcu5FLASH6SectorE26ELS3_25EEE6notifyEv:
 431              	.LFB5656:
 432              		.file 5 "../mculib3/src/flash.h"
   1:../mculib3/src/flash.h **** #pragma once
   2:../mculib3/src/flash.h **** 
   3:../mculib3/src/flash.h **** #include <cstring> // std::memcpy
   4:../mculib3/src/flash.h **** #include <algorithm>
   5:../mculib3/src/flash.h **** #include <iterator>
   6:../mculib3/src/flash.h **** #include "periph_flash.h"
   7:../mculib3/src/flash.h **** #include "timers.h"
   8:../mculib3/src/flash.h **** 
   9:../mculib3/src/flash.h **** #if defined(USE_MOCK_FLASH)
  10:../mculib3/src/flash.h **** using FLASH_ = mock::FLASH;
  11:../mculib3/src/flash.h **** using mock::FLASH;
  12:../mculib3/src/flash.h **** #elif defined(PERIPH_FLASH_H_)
  13:../mculib3/src/flash.h **** using FLASH_ = mcu::FLASH;
  14:../mculib3/src/flash.h **** using mcu::FLASH;
  15:../mculib3/src/flash.h **** #endif
  16:../mculib3/src/flash.h **** 
  17:../mculib3/src/flash.h **** 
  18:../mculib3/src/flash.h **** template<size_t n, class Int = size_t>
  19:../mculib3/src/flash.h **** class SizedInt {
  20:../mculib3/src/flash.h ****     Int value {0};
  21:../mculib3/src/flash.h **** public:
  22:../mculib3/src/flash.h ****     inline Int operator++(int)   { auto v = value; value = (++value < n) ? value : 0; return v; }
  23:../mculib3/src/flash.h ****     inline Int operator++()      { return value = (++value < n) ? value : 0; }
  24:../mculib3/src/flash.h ****     inline Int operator--(int)   { return value = (value == 0) ? n : value - 1; }
  25:../mculib3/src/flash.h ****     inline operator Int() const  { return value; }
  26:../mculib3/src/flash.h ****     inline Int operator= (Int v) { return value = v; }
  27:../mculib3/src/flash.h **** };
  28:../mculib3/src/flash.h **** 
  29:../mculib3/src/flash.h **** struct Pair {
  30:../mculib3/src/flash.h ****     uint8_t offset; 
  31:../mculib3/src/flash.h ****     uint8_t value;
  32:../mculib3/src/flash.h ****     operator uint16_t() { return uint16_t(value) << 8 | offset; }
  33:../mculib3/src/flash.h **** };
  34:../mculib3/src/flash.h **** 
  35:../mculib3/src/flash.h **** union Word {
ARM GAS  /tmp/ccsVPAmO.s 			page 26


  36:../mculib3/src/flash.h ****     Pair     pair;
  37:../mculib3/src/flash.h ****     uint16_t data;
  38:../mculib3/src/flash.h **** };
  39:../mculib3/src/flash.h **** 
  40:../mculib3/src/flash.h **** struct Memory {
  41:../mculib3/src/flash.h ****     Word*  pointer;
  42:../mculib3/src/flash.h ****     size_t size;
  43:../mculib3/src/flash.h ****     Memory (Word* pointer, size_t size)
  44:../mculib3/src/flash.h ****         :  pointer {pointer}
  45:../mculib3/src/flash.h ****         ,  size {size}
  46:../mculib3/src/flash.h ****     {}
  47:../mculib3/src/flash.h **** 
  48:../mculib3/src/flash.h ****     class Iterator {
  49:../mculib3/src/flash.h ****         Word* p {nullptr};
  50:../mculib3/src/flash.h ****     public:
  51:../mculib3/src/flash.h ****         using iterator_category = std::input_iterator_tag;
  52:../mculib3/src/flash.h ****         using value_type        = Word;
  53:../mculib3/src/flash.h ****         using difference_type   = size_t;
  54:../mculib3/src/flash.h ****         using pointer           = const Word*;
  55:../mculib3/src/flash.h ****         using reference         = Word;
  56:../mculib3/src/flash.h ****         Iterator (Word* p) : p{p} {}
  57:../mculib3/src/flash.h ****         Iterator() = default;
  58:../mculib3/src/flash.h ****         operator Word*() { return p; }
  59:../mculib3/src/flash.h ****         Word&        operator*  () const { return *p; }
  60:../mculib3/src/flash.h ****         Word*        operator-> () const { return p; }
  61:../mculib3/src/flash.h ****         bool         operator!= (const Iterator& other) const {return p != other.p; }
  62:../mculib3/src/flash.h ****         Iterator& operator++ () {
  63:../mculib3/src/flash.h ****             p++;
  64:../mculib3/src/flash.h ****             return *this;
  65:../mculib3/src/flash.h ****         }
  66:../mculib3/src/flash.h ****         Iterator& operator+ (int v) {
  67:../mculib3/src/flash.h ****             p += v;
  68:../mculib3/src/flash.h ****             return *this;
  69:../mculib3/src/flash.h ****         }
  70:../mculib3/src/flash.h ****     };
  71:../mculib3/src/flash.h **** 
  72:../mculib3/src/flash.h ****     Iterator begin() {return Iterator{pointer};}
  73:../mculib3/src/flash.h ****     Iterator end()   {return Iterator{pointer + size};}
  74:../mculib3/src/flash.h **** };
  75:../mculib3/src/flash.h **** 
  76:../mculib3/src/flash.h **** 
  77:../mculib3/src/flash.h **** 
  78:../mculib3/src/flash.h **** //  STM32F0 sector    page  refmanual
  79:../mculib3/src/flash.h **** template <class Data, FLASH_::Sector ... sector>
  80:../mculib3/src/flash.h **** class Flash_updater_impl : private TickSubscriber
  81:../mculib3/src/flash.h **** {
  82:../mculib3/src/flash.h **** public:
  83:../mculib3/src/flash.h ****     Flash_updater_impl(Data*);
  84:../mculib3/src/flash.h ****     Flash_updater_impl(); //   
  85:../mculib3/src/flash.h ****     ~Flash_updater_impl() { stop(); }
  86:../mculib3/src/flash.h ****     void start() { tick_subscribe(); }
  87:../mculib3/src/flash.h ****     void stop()  { tick_unsubscribe(); }
  88:../mculib3/src/flash.h ****     void set_data(Data* v) { original = v; }
  89:../mculib3/src/flash.h ****     void read_to(Data* data) {
  90:../mculib3/src/flash.h ****         original = data;
  91:../mculib3/src/flash.h ****         // flash.lock(); // check if need
  92:../mculib3/src/flash.h ****         if (not is_read())
ARM GAS  /tmp/ccsVPAmO.s 			page 27


  93:../mculib3/src/flash.h ****             *data = Data{};
  94:../mculib3/src/flash.h ****     }
  95:../mculib3/src/flash.h ****     bool done() {
  96:../mculib3/src/flash.h ****         auto v = done_;
  97:../mculib3/src/flash.h ****         done_ = false;
  98:../mculib3/src/flash.h ****         return v;
  99:../mculib3/src/flash.h ****     }
 100:../mculib3/src/flash.h **** private:
 101:../mculib3/src/flash.h ****     FLASH_&  flash   {mcu::make_reference<mcu::Periph::FLASH>()};
 102:../mculib3/src/flash.h ****     Data*    original;
 103:../mculib3/src/flash.h ****     uint8_t  copy[sizeof(Data)];
 104:../mculib3/src/flash.h ****     static constexpr auto sectors {std::array{sector...}} ;
 105:../mculib3/src/flash.h ****     SizedInt<sizeof...(sector)> current {};
 106:../mculib3/src/flash.h ****     bool need_erase[sizeof...(sector)] {};
 107:../mculib3/src/flash.h ****     int  erase_index {0};
 108:../mculib3/src/flash.h ****     std::array<Memory, sizeof...(sector)> memory;
 109:../mculib3/src/flash.h ****     Memory::Iterator memory_offset{nullptr};
 110:../mculib3/src/flash.h ****     bool done_ {false};
 111:../mculib3/src/flash.h **** 
 112:../mculib3/src/flash.h ****     
 113:../mculib3/src/flash.h ****     enum State {
 114:../mculib3/src/flash.h ****       check_changes,
 115:../mculib3/src/flash.h ****       start_write,
 116:../mculib3/src/flash.h ****       check_write,
 117:../mculib3/src/flash.h ****       erase,
 118:../mculib3/src/flash.h ****       check_erase,
 119:../mculib3/src/flash.h ****       rewrite
 120:../mculib3/src/flash.h ****     };
 121:../mculib3/src/flash.h ****     volatile State state {check_changes};
 122:../mculib3/src/flash.h ****     volatile State return_state {check_changes};
 123:../mculib3/src/flash.h ****     volatile uint8_t writed_data; // TODO:   volatile
 124:../mculib3/src/flash.h ****     SizedInt<sizeof(Data), uint8_t> data_offset {};
 125:../mculib3/src/flash.h **** 
 126:../mculib3/src/flash.h ****     //  true ,   
 127:../mculib3/src/flash.h ****     //            false,      
 128:../mculib3/src/flash.h ****     bool is_read();
 129:../mculib3/src/flash.h ****     void notify() override;
 130:../mculib3/src/flash.h ****     bool is_need_erase();
 131:../mculib3/src/flash.h ****     
 132:../mculib3/src/flash.h **** };
 133:../mculib3/src/flash.h **** 
 134:../mculib3/src/flash.h **** 
 135:../mculib3/src/flash.h **** // ,       Data 
 136:../mculib3/src/flash.h **** template<FLASH_::Sector ... sector>
 137:../mculib3/src/flash.h **** struct Flash_updater {
 138:../mculib3/src/flash.h ****     template<class Data>
 139:../mculib3/src/flash.h ****     static auto make(Data* data) {
 140:../mculib3/src/flash.h ****         return Flash_updater_impl<Data,sector...>{data};
 141:../mculib3/src/flash.h ****     }
 142:../mculib3/src/flash.h **** };
 143:../mculib3/src/flash.h **** 
 144:../mculib3/src/flash.h **** 
 145:../mculib3/src/flash.h **** 
 146:../mculib3/src/flash.h **** 
 147:../mculib3/src/flash.h **** 
 148:../mculib3/src/flash.h **** 
 149:../mculib3/src/flash.h **** 
ARM GAS  /tmp/ccsVPAmO.s 			page 28


 150:../mculib3/src/flash.h **** 
 151:../mculib3/src/flash.h **** 
 152:../mculib3/src/flash.h **** 
 153:../mculib3/src/flash.h **** 
 154:../mculib3/src/flash.h **** 
 155:../mculib3/src/flash.h **** template <class Data, typename FLASH_::Sector ... sector>
 156:../mculib3/src/flash.h **** Flash_updater_impl<Data,sector...>::Flash_updater_impl()
 157:../mculib3/src/flash.h ****     : original {nullptr}
 158:../mculib3/src/flash.h ****     , memory { std::array{
 159:../mculib3/src/flash.h ****         Memory (
 160:../mculib3/src/flash.h ****               reinterpret_cast<Word*>(FLASH_::template address<sector>())
 161:../mculib3/src/flash.h ****             , FLASH_::template size<sector>() / 2
 162:../mculib3/src/flash.h ****         )...
 163:../mculib3/src/flash.h ****     }}
 164:../mculib3/src/flash.h ****     , memory_offset {memory[0].begin()}
 165:../mculib3/src/flash.h **** {
 166:../mculib3/src/flash.h ****     static_assert (
 167:../mculib3/src/flash.h ****         sizeof(Data) < 255,
 168:../mculib3/src/flash.h ****         "      25
 169:../mculib3/src/flash.h ****     );
 170:../mculib3/src/flash.h ****     static_assert (
 171:../mculib3/src/flash.h ****         std::is_trivially_copyable_v<Data>,
 172:../mculib3/src/flash.h ****         "     
 173:../mculib3/src/flash.h ****     );
 174:../mculib3/src/flash.h ****     static_assert (
 175:../mculib3/src/flash.h ****         sizeof...(sector) > 1,
 176:../mculib3/src/flash.h ****         "\033[7;33m      
 177:../mculib3/src/flash.h ****     );
 178:../mculib3/src/flash.h **** }
 179:../mculib3/src/flash.h **** 
 180:../mculib3/src/flash.h **** 
 181:../mculib3/src/flash.h **** 
 182:../mculib3/src/flash.h **** template <class Data, typename FLASH_::Sector ... sector>
 183:../mculib3/src/flash.h **** Flash_updater_impl<Data,sector...>::Flash_updater_impl(Data* data)
 184:../mculib3/src/flash.h ****     : Flash_updater_impl{}
 185:../mculib3/src/flash.h **** {
 186:../mculib3/src/flash.h ****     original = data;
 187:../mculib3/src/flash.h ****     // flash.lock(); // check if need
 188:../mculib3/src/flash.h ****     read_to (data);
 189:../mculib3/src/flash.h ****     tick_subscribe();
 190:../mculib3/src/flash.h **** }
 191:../mculib3/src/flash.h **** 
 192:../mculib3/src/flash.h **** 
 193:../mculib3/src/flash.h **** 
 194:../mculib3/src/flash.h **** template <class Data, typename FLASH_::Sector ... sector>
 195:../mculib3/src/flash.h **** bool Flash_updater_impl<Data,sector...>::is_read()
 196:../mculib3/src/flash.h **** {
 197:../mculib3/src/flash.h ****     //    
 198:../mculib3/src/flash.h ****     std::fill (std::begin(copy), std::end(copy), 0xFF);
 199:../mculib3/src/flash.h **** 
 200:../mculib3/src/flash.h ****     //     data      
 201:../mculib3/src/flash.h ****     bool byte_readed[sizeof(Data)] {};
 202:../mculib3/src/flash.h ****     auto is_all_readed = [&]{ 
 203:../mculib3/src/flash.h ****         return std::all_of (std::begin(byte_readed), std::end(byte_readed), [](auto& v){return v;})
 204:../mculib3/src/flash.h ****     };
 205:../mculib3/src/flash.h ****     flash.unlock();
 206:../mculib3/src/flash.h ****     #if defined(STM32F4) or defined(STM32F7)
ARM GAS  /tmp/ccsVPAmO.s 			page 29


 207:../mculib3/src/flash.h ****         flash.set (FLASH_::ProgSize::x16)
 208:../mculib3/src/flash.h ****              .en_interrupt_endOfProg(); //    
 209:../mculib3/src/flash.h ****     #endif
 210:../mculib3/src/flash.h ****     for (size_t i{0}; i < memory.size(); i++) {
 211:../mculib3/src/flash.h ****         memory_offset = std::find_if(memory[i].begin(), memory[i].end()
 212:../mculib3/src/flash.h ****             , [&](auto& word) bool {
 213:../mculib3/src/flash.h ****                 auto& pair = word.pair;
 214:../mculib3/src/flash.h ****                 if (pair.offset < sizeof(Data)) {
 215:../mculib3/src/flash.h ****                     copy[pair.offset] = pair.value;
 216:../mculib3/src/flash.h ****                     byte_readed[pair.offset] = true;
 217:../mculib3/src/flash.h ****                     return false;
 218:../mculib3/src/flash.h ****                 }
 219:../mculib3/src/flash.h ****                 return word.data == 0xFFFF;
 220:../mculib3/src/flash.h ****             }
 221:../mculib3/src/flash.h ****         );
 222:../mculib3/src/flash.h ****         if (memory_offset == memory[i].begin()) {
 223:../mculib3/src/flash.h ****             current = i;
 224:../mculib3/src/flash.h ****             continue;
 225:../mculib3/src/flash.h ****         }
 226:../mculib3/src/flash.h ****         if (memory_offset != memory[i].end()) {
 227:../mculib3/src/flash.h ****             current = i;
 228:../mculib3/src/flash.h ****             if (is_all_readed())
 229:../mculib3/src/flash.h ****                 break;
 230:../mculib3/src/flash.h ****         } else {
 231:../mculib3/src/flash.h ****             need_erase[i] = true;
 232:../mculib3/src/flash.h ****         }
 233:../mculib3/src/flash.h ****     }
 234:../mculib3/src/flash.h **** 
 235:../mculib3/src/flash.h ****     //         
 236:../mculib3/src/flash.h ****     if (memory_offset == memory[current].end()) {
 237:../mculib3/src/flash.h ****         need_erase[current] = true;
 238:../mculib3/src/flash.h ****         current = 0;
 239:../mculib3/src/flash.h ****         memory_offset = memory[current].begin();
 240:../mculib3/src/flash.h ****     }
 241:../mculib3/src/flash.h **** 
 242:../mculib3/src/flash.h ****     auto all_readed = is_all_readed();
 243:../mculib3/src/flash.h ****     if (all_readed) {
 244:../mculib3/src/flash.h ****         std::memcpy (original, copy, sizeof(copy));
 245:../mculib3/src/flash.h ****         return_state = check_changes;
 246:../mculib3/src/flash.h ****     } else {
 247:../mculib3/src/flash.h ****         need_erase[current] = true;
 248:../mculib3/src/flash.h ****         return_state = rewrite;
 249:../mculib3/src/flash.h ****     }
 250:../mculib3/src/flash.h **** 
 251:../mculib3/src/flash.h ****     //    ,   
 252:../mculib3/src/flash.h ****     for (size_t i{0}; i < memory.size(); i++) {
 253:../mculib3/src/flash.h ****         if (not need_erase[i] and i != current) {
 254:../mculib3/src/flash.h ****             need_erase[i] = std::any_of (memory[i].begin(), memory[i].end()
 255:../mculib3/src/flash.h ****                 , [](auto& word){ return word.data != 0xFFFF; }
 256:../mculib3/src/flash.h ****             );
 257:../mculib3/src/flash.h ****         }
 258:../mculib3/src/flash.h ****     }
 259:../mculib3/src/flash.h **** 
 260:../mculib3/src/flash.h ****     if (std::any_of(std::begin(need_erase), std::end(need_erase), [](auto& v){return v;})) {
 261:../mculib3/src/flash.h ****         state = erase;
 262:../mculib3/src/flash.h ****     }
 263:../mculib3/src/flash.h **** 
ARM GAS  /tmp/ccsVPAmO.s 			page 30


 264:../mculib3/src/flash.h ****     flash.lock();
 265:../mculib3/src/flash.h ****     return all_readed;
 266:../mculib3/src/flash.h **** }
 267:../mculib3/src/flash.h **** 
 268:../mculib3/src/flash.h **** 
 269:../mculib3/src/flash.h **** 
 270:../mculib3/src/flash.h **** template <class Data, FLASH_::Sector ... sector>
 271:../mculib3/src/flash.h **** void Flash_updater_impl<Data,sector...>::notify()
 433              		.loc 5 271 0
 434              		.cfi_startproc
 435              		@ args = 0, pretend = 0, frame = 0
 436              		@ frame_needed = 0, uses_anonymous_args = 0
 437              	.LVL51:
 438 0000 F8B5     		push	{r3, r4, r5, r6, r7, lr}
 439              	.LCFI1:
 440              		.cfi_def_cfa_offset 24
 441              		.cfi_offset 3, -24
 442              		.cfi_offset 4, -20
 443              		.cfi_offset 5, -16
 444              		.cfi_offset 6, -12
 445              		.cfi_offset 7, -8
 446              		.cfi_offset 14, -4
 447              	.LBB3232:
 272:../mculib3/src/flash.h **** {
 273:../mculib3/src/flash.h ****     //         
 274:../mculib3/src/flash.h ****     uint8_t* original = reinterpret_cast<uint8_t*>(this->original);
 275:../mculib3/src/flash.h **** 
 276:../mculib3/src/flash.h ****     //  
 277:../mculib3/src/flash.h ****     switch (state) {
 448              		.loc 5 277 0
 449 0002 0500     		movs	r5, r0
 450 0004 3D35     		adds	r5, r5, #61
 451              	.LBE3232:
 271:../mculib3/src/flash.h **** {
 452              		.loc 5 271 0
 453 0006 0400     		movs	r4, r0
 274:../mculib3/src/flash.h **** 
 454              		.loc 5 274 0
 455 0008 4669     		ldr	r6, [r0, #20]
 456              	.LVL52:
 457              	.LBB3365:
 458              		.loc 5 277 0
 459 000a 2878     		ldrb	r0, [r5]
 460              	.LVL53:
 461 000c C0B2     		uxtb	r0, r0
 462 000e 0528     		cmp	r0, #5
 463 0010 1AD8     		bhi	.L63
 464 0012 FFF7FEFF 		bl	__gnu_thumb1_case_uhi
 465              	.L66:
 466 0016 0600     		.2byte	(.L65-.L66)/2
 467 0018 1A00     		.2byte	(.L67-.L66)/2
 468 001a 3900     		.2byte	(.L68-.L66)/2
 469 001c 7300     		.2byte	(.L69-.L66)/2
 470 001e BC00     		.2byte	(.L70-.L66)/2
 471 0020 EE00     		.2byte	(.L71-.L66)/2
 472              		.p2align 1
 473              	.L65:
ARM GAS  /tmp/ccsVPAmO.s 			page 31


 474              	.LVL54:
 475              	.LBB3233:
 476              	.LBB3234:
 477              	.LBB3235:
  25:../mculib3/src/flash.h ****     inline Int operator= (Int v) { return value = v; }
 478              		.loc 5 25 0
 479 0022 2200     		movs	r2, r4
 480 0024 4032     		adds	r2, r2, #64
 481 0026 1378     		ldrb	r3, [r2]
 482              	.LVL55:
 483              	.LBE3235:
 484              	.LBE3234:
 278:../mculib3/src/flash.h **** 
 279:../mculib3/src/flash.h ****     case check_changes:
 280:../mculib3/src/flash.h ****         if (original[data_offset] == copy[data_offset]) {
 485              		.loc 5 280 0
 486 0028 E118     		adds	r1, r4, r3
 487 002a F05C     		ldrb	r0, [r6, r3]
 488 002c 097E     		ldrb	r1, [r1, #24]
 489 002e 8842     		cmp	r0, r1
 490 0030 00D0     		beq	.LCB686
 491 0032 FAE0     		b	.L126	@long jump
 492              	.LCB686:
 493              	.LVL56:
 494              	.LBB3236:
 495              	.LBB3237:
  22:../mculib3/src/flash.h ****     inline Int operator++()      { return value = (++value < n) ? value : 0; }
 496              		.loc 5 22 0
 497 0034 0133     		adds	r3, r3, #1
 498              	.LVL57:
 499 0036 DBB2     		uxtb	r3, r3
 500              	.LVL58:
 501 0038 012B     		cmp	r3, #1
 502 003a 00D9     		bls	.L73
 503 003c 0023     		movs	r3, #0
 504              	.L73:
 505 003e 1370     		strb	r3, [r2]
 506              	.LVL59:
 507              	.LBE3237:
 508              	.LBE3236:
 281:../mculib3/src/flash.h ****             data_offset++;
 282:../mculib3/src/flash.h ****             done_ = data_offset == 0;
 509              		.loc 5 282 0
 510 0040 0122     		movs	r2, #1
 511 0042 3C34     		adds	r4, r4, #60
 512              	.LVL60:
 513 0044 9A43     		bics	r2, r3
 514 0046 2270     		strb	r2, [r4]
 515              	.LVL61:
 516              	.L63:
 517              	.LBE3233:
 518              	.LBE3365:
 283:../mculib3/src/flash.h ****         } else {
 284:../mculib3/src/flash.h ****             state = start_write;
 285:../mculib3/src/flash.h ****         }
 286:../mculib3/src/flash.h ****         break;
 287:../mculib3/src/flash.h **** 
ARM GAS  /tmp/ccsVPAmO.s 			page 32


 288:../mculib3/src/flash.h ****     case start_write:
 289:../mculib3/src/flash.h ****         if ( not flash.is_busy() and flash.is_lock() ) {
 290:../mculib3/src/flash.h ****             flash.unlock();
 291:../mculib3/src/flash.h ****                 flash.set_progMode();
 292:../mculib3/src/flash.h ****             #if defined(STM32F4) or defined(STM32F7)
 293:../mculib3/src/flash.h ****                 flash.set (FLASH_::ProgSize::x16)
 294:../mculib3/src/flash.h ****                     .en_interrupt_endOfProg(); //    
 295:../mculib3/src/flash.h ****             #endif
 296:../mculib3/src/flash.h ****             writed_data = original[data_offset];
 297:../mculib3/src/flash.h ****             memory_offset->data = Pair{data_offset, writed_data};
 298:../mculib3/src/flash.h ****             state = check_write;
 299:../mculib3/src/flash.h ****         }
 300:../mculib3/src/flash.h ****         break;
 301:../mculib3/src/flash.h **** 
 302:../mculib3/src/flash.h ****     case check_write:
 303:../mculib3/src/flash.h ****         if ( flash.is_endOfProg() ) {
 304:../mculib3/src/flash.h ****             flash.clear_flag_endOfProg()
 305:../mculib3/src/flash.h ****                 .lock();
 306:../mculib3/src/flash.h ****             copy[data_offset] = writed_data;
 307:../mculib3/src/flash.h ****             if (++memory_offset != memory[current].end()) {
 308:../mculib3/src/flash.h ****                 state = return_state;
 309:../mculib3/src/flash.h ****             } else {
 310:../mculib3/src/flash.h ****                 need_erase[current] = true;
 311:../mculib3/src/flash.h ****                 current++;
 312:../mculib3/src/flash.h ****                 memory_offset = memory[current].begin();
 313:../mculib3/src/flash.h ****                 data_offset = 0;
 314:../mculib3/src/flash.h ****                 state = start_write;
 315:../mculib3/src/flash.h ****                 return_state = rewrite;
 316:../mculib3/src/flash.h ****             }
 317:../mculib3/src/flash.h ****         }
 318:../mculib3/src/flash.h ****         break;
 319:../mculib3/src/flash.h **** 
 320:../mculib3/src/flash.h ****     case erase:
 321:../mculib3/src/flash.h ****         if ( not flash.is_busy() and flash.is_lock() ) {
 322:../mculib3/src/flash.h ****             auto it = std::find(std::begin(need_erase), std::end(need_erase), true);
 323:../mculib3/src/flash.h ****             if (it == std::end(need_erase)) {
 324:../mculib3/src/flash.h ****                 state = return_state;
 325:../mculib3/src/flash.h ****                 break;
 326:../mculib3/src/flash.h ****             }
 327:../mculib3/src/flash.h ****             erase_index = std::distance(std::begin(need_erase), it);
 328:../mculib3/src/flash.h ****             flash.unlock()
 329:../mculib3/src/flash.h ****                 .start_erase(sectors[erase_index]);
 330:../mculib3/src/flash.h ****             state = check_erase;
 331:../mculib3/src/flash.h ****         }
 332:../mculib3/src/flash.h ****     break;
 333:../mculib3/src/flash.h **** 
 334:../mculib3/src/flash.h ****     case check_erase:
 335:../mculib3/src/flash.h ****         if ( flash.is_endOfProg() ) {
 336:../mculib3/src/flash.h ****             flash.clear_flag_endOfProg()
 337:../mculib3/src/flash.h ****                  .lock();
 338:../mculib3/src/flash.h ****             auto verified = std::all_of(std::begin(memory[erase_index]), std::end(memory[erase_inde
 339:../mculib3/src/flash.h ****                 return word.data == 0xFFFF;
 340:../mculib3/src/flash.h ****             });
 341:../mculib3/src/flash.h ****             need_erase[erase_index] = not verified;
 342:../mculib3/src/flash.h ****             state = is_need_erase() ? erase : check_changes;
 343:../mculib3/src/flash.h ****         }
 344:../mculib3/src/flash.h ****     break;
ARM GAS  /tmp/ccsVPAmO.s 			page 33


 345:../mculib3/src/flash.h **** 
 346:../mculib3/src/flash.h ****     case rewrite:
 347:../mculib3/src/flash.h ****         if (++data_offset) {
 348:../mculib3/src/flash.h ****             state = start_write;
 349:../mculib3/src/flash.h ****         } else {
 350:../mculib3/src/flash.h ****             state = is_need_erase() ? erase : check_changes;
 351:../mculib3/src/flash.h ****             return_state = check_changes;
 352:../mculib3/src/flash.h ****         }
 353:../mculib3/src/flash.h ****     break;
 354:../mculib3/src/flash.h ****     } // switch
 355:../mculib3/src/flash.h **** }
 519              		.loc 5 355 0
 520              		@ sp needed
 521              	.LVL62:
 522 0048 F8BD     		pop	{r3, r4, r5, r6, r7, pc}
 523              	.LVL63:
 524              	.L67:
 525              	.LBB3366:
 526              	.LBB3363:
 289:../mculib3/src/flash.h ****             flash.unlock();
 527              		.loc 5 289 0
 528 004a 2069     		ldr	r0, [r4, #16]
 529              	.LVL64:
 530              	.LBB3238:
 531              	.LBB3239:
  37:../mculib3/src/periph/flash_f0.h ****    FLASH& en_interrupt_endOfProg()   { CR.EOPIE    = true; return *this; }
 532              		.loc 4 37 0
 533 004c C368     		ldr	r3, [r0, #12]
 534              	.LBE3239:
 535              	.LBE3238:
 289:../mculib3/src/flash.h ****             flash.unlock();
 536              		.loc 5 289 0
 537 004e DB07     		lsls	r3, r3, #31
 538 0050 FAD4     		bmi	.L63
 539              	.LVL65:
 540              	.LBB3240:
 541              	.LBB3241:
  32:../mculib3/src/periph/flash_f0.h ****    FLASH& unlock();
 542              		.loc 4 32 0 discriminator 1
 543 0052 0369     		ldr	r3, [r0, #16]
 544              	.LBE3241:
 545              	.LBE3240:
 289:../mculib3/src/flash.h ****             flash.unlock();
 546              		.loc 5 289 0 discriminator 1
 547 0054 1B06     		lsls	r3, r3, #24
 548 0056 F7D5     		bpl	.L63
 290:../mculib3/src/flash.h ****                 flash.set_progMode();
 549              		.loc 5 290 0
 550 0058 FFF7FEFF 		bl	_ZN3mcu5FLASH6unlockEv
 551              	.LVL66:
 552              	.LBB3242:
 553              	.LBB3243:
  34:../mculib3/src/periph/flash_f0.h ****    bool   is_endOfProg()             { return SR.EOP;                    }
 554              		.loc 4 34 0
 555 005c 0221     		movs	r1, #2
 556              	.LBE3243:
 557              	.LBE3242:
ARM GAS  /tmp/ccsVPAmO.s 			page 34


 291:../mculib3/src/flash.h ****             #if defined(STM32F4) or defined(STM32F7)
 558              		.loc 5 291 0
 559 005e 2369     		ldr	r3, [r4, #16]
 560              	.LVL67:
 561              	.LBB3245:
 562              	.LBB3244:
  34:../mculib3/src/periph/flash_f0.h ****    bool   is_endOfProg()             { return SR.EOP;                    }
 563              		.loc 4 34 0
 564 0060 1A69     		ldr	r2, [r3, #16]
 565 0062 8A43     		bics	r2, r1
 566 0064 1A61     		str	r2, [r3, #16]
 567 0066 0122     		movs	r2, #1
 568 0068 1869     		ldr	r0, [r3, #16]
 569 006a 0243     		orrs	r2, r0
 570 006c 1A61     		str	r2, [r3, #16]
 571              	.LVL68:
 572              	.LBE3244:
 573              	.LBE3245:
 574              	.LBB3246:
 575              	.LBB3247:
  25:../mculib3/src/flash.h ****     inline Int operator= (Int v) { return value = v; }
 576              		.loc 5 25 0
 577 006e 2300     		movs	r3, r4
 578 0070 4033     		adds	r3, r3, #64
 579 0072 1A78     		ldrb	r2, [r3]
 580              	.LVL69:
 581              	.LBE3247:
 582              	.LBE3246:
 296:../mculib3/src/flash.h ****             memory_offset->data = Pair{data_offset, writed_data};
 583              		.loc 5 296 0
 584 0074 013B     		subs	r3, r3, #1
 585 0076 B05C     		ldrb	r0, [r6, r2]
 586 0078 1870     		strb	r0, [r3]
 297:../mculib3/src/flash.h ****             state = check_write;
 587              		.loc 5 297 0
 588 007a 1B78     		ldrb	r3, [r3]
 589 007c A06B     		ldr	r0, [r4, #56]
 590              	.LBB3248:
 591              	.LBB3249:
  32:../mculib3/src/flash.h **** };
 592              		.loc 5 32 0
 593 007e 1B02     		lsls	r3, r3, #8
 594 0080 1343     		orrs	r3, r2
 595              	.LBE3249:
 596              	.LBE3248:
 297:../mculib3/src/flash.h ****             state = check_write;
 597              		.loc 5 297 0
 598 0082 0380     		strh	r3, [r0]
 298:../mculib3/src/flash.h ****         }
 599              		.loc 5 298 0
 600 0084 2970     		strb	r1, [r5]
 601 0086 DFE7     		b	.L63
 602              	.L68:
 303:../mculib3/src/flash.h ****             flash.clear_flag_endOfProg()
 603              		.loc 5 303 0
 604 0088 2369     		ldr	r3, [r4, #16]
 605              	.LVL70:
ARM GAS  /tmp/ccsVPAmO.s 			page 35


 606              	.LBB3250:
 607              	.LBB3251:
  35:../mculib3/src/periph/flash_f0.h ****    FLASH& clear_flag_endOfProg()     { SR.EOP      = true; return *this; }
 608              		.loc 4 35 0
 609 008a DA68     		ldr	r2, [r3, #12]
 610              	.LBE3251:
 611              	.LBE3250:
 303:../mculib3/src/flash.h ****             flash.clear_flag_endOfProg()
 612              		.loc 5 303 0
 613 008c 9206     		lsls	r2, r2, #26
 614 008e DBD5     		bpl	.L63
 615              	.LVL71:
 616              	.LBB3252:
 617              	.LBB3253:
  36:../mculib3/src/periph/flash_f0.h ****    bool   is_busy()                  { return SR.BSY;                    }
 618              		.loc 4 36 0
 619 0090 2022     		movs	r2, #32
 620 0092 D968     		ldr	r1, [r3, #12]
 621 0094 0A43     		orrs	r2, r1
 622 0096 DA60     		str	r2, [r3, #12]
 623              	.LVL72:
 624              	.LBE3253:
 625              	.LBE3252:
 626              	.LBB3254:
 627              	.LBB3255:
  31:../mculib3/src/periph/flash_f0.h ****    bool   is_lock()                  { return CR.LOCK;                   }
 628              		.loc 4 31 0
 629 0098 8022     		movs	r2, #128
 630 009a 1969     		ldr	r1, [r3, #16]
 631 009c 0A43     		orrs	r2, r1
 632 009e 1A61     		str	r2, [r3, #16]
 633              	.LBE3255:
 634              	.LBE3254:
 635              	.LBB3256:
 636              	.LBB3257:
  25:../mculib3/src/flash.h ****     inline Int operator= (Int v) { return value = v; }
 637              		.loc 5 25 0
 638 00a0 2100     		movs	r1, r4
 639              	.LBE3257:
 640              	.LBE3256:
 306:../mculib3/src/flash.h ****             if (++memory_offset != memory[current].end()) {
 641              		.loc 5 306 0
 642 00a2 2300     		movs	r3, r4
 643              	.LBB3259:
 644              	.LBB3258:
  25:../mculib3/src/flash.h ****     inline Int operator= (Int v) { return value = v; }
 645              		.loc 5 25 0
 646 00a4 4031     		adds	r1, r1, #64
 647              	.LBE3258:
 648              	.LBE3259:
 306:../mculib3/src/flash.h ****             if (++memory_offset != memory[current].end()) {
 649              		.loc 5 306 0
 650 00a6 3F33     		adds	r3, r3, #63
 651 00a8 1A78     		ldrb	r2, [r3]
 652 00aa 0B78     		ldrb	r3, [r1]
 653 00ac E318     		adds	r3, r4, r3
 654 00ae 1A76     		strb	r2, [r3, #24]
ARM GAS  /tmp/ccsVPAmO.s 			page 36


 655              	.LVL73:
 656              	.LBB3260:
 657              	.LBB3261:
  63:../mculib3/src/flash.h ****             return *this;
 658              		.loc 5 63 0
 659 00b0 A36B     		ldr	r3, [r4, #56]
 660 00b2 981C     		adds	r0, r3, #2
 661              	.LBE3261:
 662              	.LBE3260:
 663              	.LBB3263:
 664              	.LBB3264:
  25:../mculib3/src/flash.h ****     inline Int operator= (Int v) { return value = v; }
 665              		.loc 5 25 0
 666 00b4 E369     		ldr	r3, [r4, #28]
 667              	.LBE3264:
 668              	.LBE3263:
 669              	.LBB3265:
 670              	.LBB3262:
  63:../mculib3/src/flash.h ****             return *this;
 671              		.loc 5 63 0
 672 00b6 A063     		str	r0, [r4, #56]
 673              	.LVL74:
 674 00b8 DA00     		lsls	r2, r3, #3
 675 00ba A218     		adds	r2, r4, r2
 676              	.LVL75:
 677              	.LBE3262:
 678              	.LBE3265:
 679              	.LBB3266:
 680              	.LBB3267:
  73:../mculib3/src/flash.h **** };
 681              		.loc 5 73 0
 682 00bc D66A     		ldr	r6, [r2, #44]
 683              	.LVL76:
 684 00be 7700     		lsls	r7, r6, #1
 685 00c0 966A     		ldr	r6, [r2, #40]
 686 00c2 2200     		movs	r2, r4
 687 00c4 F619     		adds	r6, r6, r7
 688 00c6 3E32     		adds	r2, r2, #62
 689              	.LBE3267:
 690              	.LBE3266:
 307:../mculib3/src/flash.h ****                 state = return_state;
 691              		.loc 5 307 0
 692 00c8 B042     		cmp	r0, r6
 693 00ca 03D0     		beq	.L74
 308:../mculib3/src/flash.h ****             } else {
 694              		.loc 5 308 0
 695 00cc 1378     		ldrb	r3, [r2]
 696              	.LVL77:
 697              	.L127:
 698              	.LBB3268:
 699              	.LBB3269:
 324:../mculib3/src/flash.h ****                 break;
 700              		.loc 5 324 0
 701 00ce DBB2     		uxtb	r3, r3
 702              	.L125:
 703              	.LBE3269:
 704              	.LBE3268:
ARM GAS  /tmp/ccsVPAmO.s 			page 37


 348:../mculib3/src/flash.h ****         } else {
 705              		.loc 5 348 0
 706 00d0 2B70     		strb	r3, [r5]
 707 00d2 B9E7     		b	.L63
 708              	.LVL78:
 709              	.L74:
 310:../mculib3/src/flash.h ****                 current++;
 710              		.loc 5 310 0
 711 00d4 0126     		movs	r6, #1
 712 00d6 E018     		adds	r0, r4, r3
 713 00d8 0130     		adds	r0, r0, #1
 714              	.LBB3298:
 715              	.LBB3299:
  22:../mculib3/src/flash.h ****     inline Int operator++()      { return value = (++value < n) ? value : 0; }
 716              		.loc 5 22 0
 717 00da 9B19     		adds	r3, r3, r6
 718              	.LBE3299:
 719              	.LBE3298:
 310:../mculib3/src/flash.h ****                 current++;
 720              		.loc 5 310 0
 721 00dc C677     		strb	r6, [r0, #31]
 722              	.LVL79:
 723              	.LBB3301:
 724              	.LBB3300:
  22:../mculib3/src/flash.h ****     inline Int operator++()      { return value = (++value < n) ? value : 0; }
 725              		.loc 5 22 0
 726 00de B342     		cmp	r3, r6
 727 00e0 00D9     		bls	.L75
 728 00e2 0023     		movs	r3, #0
 729              	.L75:
 730 00e4 E361     		str	r3, [r4, #28]
 731              	.LVL80:
 732              	.LBE3300:
 733              	.LBE3301:
 312:../mculib3/src/flash.h ****                 data_offset = 0;
 734              		.loc 5 312 0
 735 00e6 DB00     		lsls	r3, r3, #3
 736 00e8 E318     		adds	r3, r4, r3
 737 00ea 9B6A     		ldr	r3, [r3, #40]
 738 00ec A363     		str	r3, [r4, #56]
 739              	.LVL81:
 740              	.LBB3302:
 741              	.LBB3303:
  26:../mculib3/src/flash.h **** };
 742              		.loc 5 26 0
 743 00ee 0023     		movs	r3, #0
 744 00f0 0B70     		strb	r3, [r1]
 745              	.LVL82:
 746              	.LBE3303:
 747              	.LBE3302:
 314:../mculib3/src/flash.h ****                 return_state = rewrite;
 748              		.loc 5 314 0
 749 00f2 0133     		adds	r3, r3, #1
 750 00f4 2B70     		strb	r3, [r5]
 315:../mculib3/src/flash.h ****             }
 751              		.loc 5 315 0
 752 00f6 0433     		adds	r3, r3, #4
ARM GAS  /tmp/ccsVPAmO.s 			page 38


 753 00f8 1370     		strb	r3, [r2]
 754 00fa A5E7     		b	.L63
 755              	.LVL83:
 756              	.L69:
 757              	.LBB3304:
 321:../mculib3/src/flash.h ****             auto it = std::find(std::begin(need_erase), std::end(need_erase), true);
 758              		.loc 5 321 0
 759 00fc 2069     		ldr	r0, [r4, #16]
 760              	.LVL84:
 761              	.LBB3293:
 762              	.LBB3294:
  37:../mculib3/src/periph/flash_f0.h ****    FLASH& en_interrupt_endOfProg()   { CR.EOPIE    = true; return *this; }
 763              		.loc 4 37 0
 764 00fe C368     		ldr	r3, [r0, #12]
 765              	.LBE3294:
 766              	.LBE3293:
 321:../mculib3/src/flash.h ****             auto it = std::find(std::begin(need_erase), std::end(need_erase), true);
 767              		.loc 5 321 0
 768 0100 DB07     		lsls	r3, r3, #31
 769 0102 A1D4     		bmi	.L63
 770              	.LVL85:
 771              	.LBB3295:
 772              	.LBB3296:
  32:../mculib3/src/periph/flash_f0.h ****    FLASH& unlock();
 773              		.loc 4 32 0 discriminator 1
 774 0104 0369     		ldr	r3, [r0, #16]
 775              	.LBE3296:
 776              	.LBE3295:
 321:../mculib3/src/flash.h ****             auto it = std::find(std::begin(need_erase), std::end(need_erase), true);
 777              		.loc 5 321 0 discriminator 1
 778 0106 1B06     		lsls	r3, r3, #24
 779 0108 9ED5     		bpl	.L63
 780              	.LBB3297:
 322:../mculib3/src/flash.h ****             if (it == std::end(need_erase)) {
 781              		.loc 5 322 0
 782 010a 2300     		movs	r3, r4
 783              	.LBB3270:
 784              	.LBB3271:
 785              		.file 6 "/home/users/aag/code/gcc-arm-none-eabi-7-2018-q2-update/arm-none-eabi/include/c++/7.3.1/b
   1:/home/users/aag/code/gcc-arm-none-eabi-7-2018-q2-update/arm-none-eabi/include/c++/7.3.1/bits/range_access.h **** // <range_access.h> -*- C++ -*-
   2:/home/users/aag/code/gcc-arm-none-eabi-7-2018-q2-update/arm-none-eabi/include/c++/7.3.1/bits/range_access.h **** 
   3:/home/users/aag/code/gcc-arm-none-eabi-7-2018-q2-update/arm-none-eabi/include/c++/7.3.1/bits/range_access.h **** // Copyright (C) 2010-2017 Free Software Foundation, Inc.
   4:/home/users/aag/code/gcc-arm-none-eabi-7-2018-q2-update/arm-none-eabi/include/c++/7.3.1/bits/range_access.h **** //
   5:/home/users/aag/code/gcc-arm-none-eabi-7-2018-q2-update/arm-none-eabi/include/c++/7.3.1/bits/range_access.h **** // This file is part of the GNU ISO C++ Library.  This library is free
   6:/home/users/aag/code/gcc-arm-none-eabi-7-2018-q2-update/arm-none-eabi/include/c++/7.3.1/bits/range_access.h **** // software; you can redistribute it and/or modify it under the
   7:/home/users/aag/code/gcc-arm-none-eabi-7-2018-q2-update/arm-none-eabi/include/c++/7.3.1/bits/range_access.h **** // terms of the GNU General Public License as published by the
   8:/home/users/aag/code/gcc-arm-none-eabi-7-2018-q2-update/arm-none-eabi/include/c++/7.3.1/bits/range_access.h **** // Free Software Foundation; either version 3, or (at your option)
   9:/home/users/aag/code/gcc-arm-none-eabi-7-2018-q2-update/arm-none-eabi/include/c++/7.3.1/bits/range_access.h **** // any later version.
  10:/home/users/aag/code/gcc-arm-none-eabi-7-2018-q2-update/arm-none-eabi/include/c++/7.3.1/bits/range_access.h **** 
  11:/home/users/aag/code/gcc-arm-none-eabi-7-2018-q2-update/arm-none-eabi/include/c++/7.3.1/bits/range_access.h **** // This library is distributed in the hope that it will be useful,
  12:/home/users/aag/code/gcc-arm-none-eabi-7-2018-q2-update/arm-none-eabi/include/c++/7.3.1/bits/range_access.h **** // but WITHOUT ANY WARRANTY; without even the implied warranty of
  13:/home/users/aag/code/gcc-arm-none-eabi-7-2018-q2-update/arm-none-eabi/include/c++/7.3.1/bits/range_access.h **** // MERCHANTABILITY or FITNESS FOR A PARTICULAR PURPOSE.  See the
  14:/home/users/aag/code/gcc-arm-none-eabi-7-2018-q2-update/arm-none-eabi/include/c++/7.3.1/bits/range_access.h **** // GNU General Public License for more details.
  15:/home/users/aag/code/gcc-arm-none-eabi-7-2018-q2-update/arm-none-eabi/include/c++/7.3.1/bits/range_access.h **** 
  16:/home/users/aag/code/gcc-arm-none-eabi-7-2018-q2-update/arm-none-eabi/include/c++/7.3.1/bits/range_access.h **** // Under Section 7 of GPL version 3, you are granted additional
  17:/home/users/aag/code/gcc-arm-none-eabi-7-2018-q2-update/arm-none-eabi/include/c++/7.3.1/bits/range_access.h **** // permissions described in the GCC Runtime Library Exception, version
  18:/home/users/aag/code/gcc-arm-none-eabi-7-2018-q2-update/arm-none-eabi/include/c++/7.3.1/bits/range_access.h **** // 3.1, as published by the Free Software Foundation.
ARM GAS  /tmp/ccsVPAmO.s 			page 39


  19:/home/users/aag/code/gcc-arm-none-eabi-7-2018-q2-update/arm-none-eabi/include/c++/7.3.1/bits/range_access.h **** 
  20:/home/users/aag/code/gcc-arm-none-eabi-7-2018-q2-update/arm-none-eabi/include/c++/7.3.1/bits/range_access.h **** // You should have received a copy of the GNU General Public License and
  21:/home/users/aag/code/gcc-arm-none-eabi-7-2018-q2-update/arm-none-eabi/include/c++/7.3.1/bits/range_access.h **** // a copy of the GCC Runtime Library Exception along with this program;
  22:/home/users/aag/code/gcc-arm-none-eabi-7-2018-q2-update/arm-none-eabi/include/c++/7.3.1/bits/range_access.h **** // see the files COPYING3 and COPYING.RUNTIME respectively.  If not, see
  23:/home/users/aag/code/gcc-arm-none-eabi-7-2018-q2-update/arm-none-eabi/include/c++/7.3.1/bits/range_access.h **** // <http://www.gnu.org/licenses/>.
  24:/home/users/aag/code/gcc-arm-none-eabi-7-2018-q2-update/arm-none-eabi/include/c++/7.3.1/bits/range_access.h **** 
  25:/home/users/aag/code/gcc-arm-none-eabi-7-2018-q2-update/arm-none-eabi/include/c++/7.3.1/bits/range_access.h **** /** @file bits/range_access.h
  26:/home/users/aag/code/gcc-arm-none-eabi-7-2018-q2-update/arm-none-eabi/include/c++/7.3.1/bits/range_access.h ****  *  This is an internal header file, included by other library headers.
  27:/home/users/aag/code/gcc-arm-none-eabi-7-2018-q2-update/arm-none-eabi/include/c++/7.3.1/bits/range_access.h ****  *  Do not attempt to use it directly. @headername{iterator}
  28:/home/users/aag/code/gcc-arm-none-eabi-7-2018-q2-update/arm-none-eabi/include/c++/7.3.1/bits/range_access.h ****  */
  29:/home/users/aag/code/gcc-arm-none-eabi-7-2018-q2-update/arm-none-eabi/include/c++/7.3.1/bits/range_access.h **** 
  30:/home/users/aag/code/gcc-arm-none-eabi-7-2018-q2-update/arm-none-eabi/include/c++/7.3.1/bits/range_access.h **** #ifndef _GLIBCXX_RANGE_ACCESS_H
  31:/home/users/aag/code/gcc-arm-none-eabi-7-2018-q2-update/arm-none-eabi/include/c++/7.3.1/bits/range_access.h **** #define _GLIBCXX_RANGE_ACCESS_H 1
  32:/home/users/aag/code/gcc-arm-none-eabi-7-2018-q2-update/arm-none-eabi/include/c++/7.3.1/bits/range_access.h **** 
  33:/home/users/aag/code/gcc-arm-none-eabi-7-2018-q2-update/arm-none-eabi/include/c++/7.3.1/bits/range_access.h **** #pragma GCC system_header
  34:/home/users/aag/code/gcc-arm-none-eabi-7-2018-q2-update/arm-none-eabi/include/c++/7.3.1/bits/range_access.h **** 
  35:/home/users/aag/code/gcc-arm-none-eabi-7-2018-q2-update/arm-none-eabi/include/c++/7.3.1/bits/range_access.h **** #if __cplusplus >= 201103L
  36:/home/users/aag/code/gcc-arm-none-eabi-7-2018-q2-update/arm-none-eabi/include/c++/7.3.1/bits/range_access.h **** #include <initializer_list>
  37:/home/users/aag/code/gcc-arm-none-eabi-7-2018-q2-update/arm-none-eabi/include/c++/7.3.1/bits/range_access.h **** namespace std _GLIBCXX_VISIBILITY(default)
  38:/home/users/aag/code/gcc-arm-none-eabi-7-2018-q2-update/arm-none-eabi/include/c++/7.3.1/bits/range_access.h **** {
  39:/home/users/aag/code/gcc-arm-none-eabi-7-2018-q2-update/arm-none-eabi/include/c++/7.3.1/bits/range_access.h **** _GLIBCXX_BEGIN_NAMESPACE_VERSION
  40:/home/users/aag/code/gcc-arm-none-eabi-7-2018-q2-update/arm-none-eabi/include/c++/7.3.1/bits/range_access.h **** 
  41:/home/users/aag/code/gcc-arm-none-eabi-7-2018-q2-update/arm-none-eabi/include/c++/7.3.1/bits/range_access.h ****   /**
  42:/home/users/aag/code/gcc-arm-none-eabi-7-2018-q2-update/arm-none-eabi/include/c++/7.3.1/bits/range_access.h ****    *  @brief  Return an iterator pointing to the first element of
  43:/home/users/aag/code/gcc-arm-none-eabi-7-2018-q2-update/arm-none-eabi/include/c++/7.3.1/bits/range_access.h ****    *          the container.
  44:/home/users/aag/code/gcc-arm-none-eabi-7-2018-q2-update/arm-none-eabi/include/c++/7.3.1/bits/range_access.h ****    *  @param  __cont  Container.
  45:/home/users/aag/code/gcc-arm-none-eabi-7-2018-q2-update/arm-none-eabi/include/c++/7.3.1/bits/range_access.h ****    */
  46:/home/users/aag/code/gcc-arm-none-eabi-7-2018-q2-update/arm-none-eabi/include/c++/7.3.1/bits/range_access.h ****   template<typename _Container>
  47:/home/users/aag/code/gcc-arm-none-eabi-7-2018-q2-update/arm-none-eabi/include/c++/7.3.1/bits/range_access.h ****     inline _GLIBCXX17_CONSTEXPR auto
  48:/home/users/aag/code/gcc-arm-none-eabi-7-2018-q2-update/arm-none-eabi/include/c++/7.3.1/bits/range_access.h ****     begin(_Container& __cont) -> decltype(__cont.begin())
  49:/home/users/aag/code/gcc-arm-none-eabi-7-2018-q2-update/arm-none-eabi/include/c++/7.3.1/bits/range_access.h ****     { return __cont.begin(); }
  50:/home/users/aag/code/gcc-arm-none-eabi-7-2018-q2-update/arm-none-eabi/include/c++/7.3.1/bits/range_access.h **** 
  51:/home/users/aag/code/gcc-arm-none-eabi-7-2018-q2-update/arm-none-eabi/include/c++/7.3.1/bits/range_access.h ****   /**
  52:/home/users/aag/code/gcc-arm-none-eabi-7-2018-q2-update/arm-none-eabi/include/c++/7.3.1/bits/range_access.h ****    *  @brief  Return an iterator pointing to the first element of
  53:/home/users/aag/code/gcc-arm-none-eabi-7-2018-q2-update/arm-none-eabi/include/c++/7.3.1/bits/range_access.h ****    *          the const container.
  54:/home/users/aag/code/gcc-arm-none-eabi-7-2018-q2-update/arm-none-eabi/include/c++/7.3.1/bits/range_access.h ****    *  @param  __cont  Container.
  55:/home/users/aag/code/gcc-arm-none-eabi-7-2018-q2-update/arm-none-eabi/include/c++/7.3.1/bits/range_access.h ****    */
  56:/home/users/aag/code/gcc-arm-none-eabi-7-2018-q2-update/arm-none-eabi/include/c++/7.3.1/bits/range_access.h ****   template<typename _Container>
  57:/home/users/aag/code/gcc-arm-none-eabi-7-2018-q2-update/arm-none-eabi/include/c++/7.3.1/bits/range_access.h ****     inline _GLIBCXX17_CONSTEXPR auto
  58:/home/users/aag/code/gcc-arm-none-eabi-7-2018-q2-update/arm-none-eabi/include/c++/7.3.1/bits/range_access.h ****     begin(const _Container& __cont) -> decltype(__cont.begin())
  59:/home/users/aag/code/gcc-arm-none-eabi-7-2018-q2-update/arm-none-eabi/include/c++/7.3.1/bits/range_access.h ****     { return __cont.begin(); }
  60:/home/users/aag/code/gcc-arm-none-eabi-7-2018-q2-update/arm-none-eabi/include/c++/7.3.1/bits/range_access.h **** 
  61:/home/users/aag/code/gcc-arm-none-eabi-7-2018-q2-update/arm-none-eabi/include/c++/7.3.1/bits/range_access.h ****   /**
  62:/home/users/aag/code/gcc-arm-none-eabi-7-2018-q2-update/arm-none-eabi/include/c++/7.3.1/bits/range_access.h ****    *  @brief  Return an iterator pointing to one past the last element of
  63:/home/users/aag/code/gcc-arm-none-eabi-7-2018-q2-update/arm-none-eabi/include/c++/7.3.1/bits/range_access.h ****    *          the container.
  64:/home/users/aag/code/gcc-arm-none-eabi-7-2018-q2-update/arm-none-eabi/include/c++/7.3.1/bits/range_access.h ****    *  @param  __cont  Container.
  65:/home/users/aag/code/gcc-arm-none-eabi-7-2018-q2-update/arm-none-eabi/include/c++/7.3.1/bits/range_access.h ****    */
  66:/home/users/aag/code/gcc-arm-none-eabi-7-2018-q2-update/arm-none-eabi/include/c++/7.3.1/bits/range_access.h ****   template<typename _Container>
  67:/home/users/aag/code/gcc-arm-none-eabi-7-2018-q2-update/arm-none-eabi/include/c++/7.3.1/bits/range_access.h ****     inline _GLIBCXX17_CONSTEXPR auto
  68:/home/users/aag/code/gcc-arm-none-eabi-7-2018-q2-update/arm-none-eabi/include/c++/7.3.1/bits/range_access.h ****     end(_Container& __cont) -> decltype(__cont.end())
  69:/home/users/aag/code/gcc-arm-none-eabi-7-2018-q2-update/arm-none-eabi/include/c++/7.3.1/bits/range_access.h ****     { return __cont.end(); }
  70:/home/users/aag/code/gcc-arm-none-eabi-7-2018-q2-update/arm-none-eabi/include/c++/7.3.1/bits/range_access.h **** 
  71:/home/users/aag/code/gcc-arm-none-eabi-7-2018-q2-update/arm-none-eabi/include/c++/7.3.1/bits/range_access.h ****   /**
  72:/home/users/aag/code/gcc-arm-none-eabi-7-2018-q2-update/arm-none-eabi/include/c++/7.3.1/bits/range_access.h ****    *  @brief  Return an iterator pointing to one past the last element of
  73:/home/users/aag/code/gcc-arm-none-eabi-7-2018-q2-update/arm-none-eabi/include/c++/7.3.1/bits/range_access.h ****    *          the const container.
  74:/home/users/aag/code/gcc-arm-none-eabi-7-2018-q2-update/arm-none-eabi/include/c++/7.3.1/bits/range_access.h ****    *  @param  __cont  Container.
  75:/home/users/aag/code/gcc-arm-none-eabi-7-2018-q2-update/arm-none-eabi/include/c++/7.3.1/bits/range_access.h ****    */
ARM GAS  /tmp/ccsVPAmO.s 			page 40


  76:/home/users/aag/code/gcc-arm-none-eabi-7-2018-q2-update/arm-none-eabi/include/c++/7.3.1/bits/range_access.h ****   template<typename _Container>
  77:/home/users/aag/code/gcc-arm-none-eabi-7-2018-q2-update/arm-none-eabi/include/c++/7.3.1/bits/range_access.h ****     inline _GLIBCXX17_CONSTEXPR auto
  78:/home/users/aag/code/gcc-arm-none-eabi-7-2018-q2-update/arm-none-eabi/include/c++/7.3.1/bits/range_access.h ****     end(const _Container& __cont) -> decltype(__cont.end())
  79:/home/users/aag/code/gcc-arm-none-eabi-7-2018-q2-update/arm-none-eabi/include/c++/7.3.1/bits/range_access.h ****     { return __cont.end(); }
  80:/home/users/aag/code/gcc-arm-none-eabi-7-2018-q2-update/arm-none-eabi/include/c++/7.3.1/bits/range_access.h **** 
  81:/home/users/aag/code/gcc-arm-none-eabi-7-2018-q2-update/arm-none-eabi/include/c++/7.3.1/bits/range_access.h ****   /**
  82:/home/users/aag/code/gcc-arm-none-eabi-7-2018-q2-update/arm-none-eabi/include/c++/7.3.1/bits/range_access.h ****    *  @brief  Return an iterator pointing to the first element of the array.
  83:/home/users/aag/code/gcc-arm-none-eabi-7-2018-q2-update/arm-none-eabi/include/c++/7.3.1/bits/range_access.h ****    *  @param  __arr  Array.
  84:/home/users/aag/code/gcc-arm-none-eabi-7-2018-q2-update/arm-none-eabi/include/c++/7.3.1/bits/range_access.h ****    */
  85:/home/users/aag/code/gcc-arm-none-eabi-7-2018-q2-update/arm-none-eabi/include/c++/7.3.1/bits/range_access.h ****   template<typename _Tp, size_t _Nm>
  86:/home/users/aag/code/gcc-arm-none-eabi-7-2018-q2-update/arm-none-eabi/include/c++/7.3.1/bits/range_access.h ****     inline _GLIBCXX14_CONSTEXPR _Tp*
  87:/home/users/aag/code/gcc-arm-none-eabi-7-2018-q2-update/arm-none-eabi/include/c++/7.3.1/bits/range_access.h ****     begin(_Tp (&__arr)[_Nm])
  88:/home/users/aag/code/gcc-arm-none-eabi-7-2018-q2-update/arm-none-eabi/include/c++/7.3.1/bits/range_access.h ****     { return __arr; }
  89:/home/users/aag/code/gcc-arm-none-eabi-7-2018-q2-update/arm-none-eabi/include/c++/7.3.1/bits/range_access.h **** 
  90:/home/users/aag/code/gcc-arm-none-eabi-7-2018-q2-update/arm-none-eabi/include/c++/7.3.1/bits/range_access.h ****   /**
  91:/home/users/aag/code/gcc-arm-none-eabi-7-2018-q2-update/arm-none-eabi/include/c++/7.3.1/bits/range_access.h ****    *  @brief  Return an iterator pointing to one past the last element
  92:/home/users/aag/code/gcc-arm-none-eabi-7-2018-q2-update/arm-none-eabi/include/c++/7.3.1/bits/range_access.h ****    *          of the array.
  93:/home/users/aag/code/gcc-arm-none-eabi-7-2018-q2-update/arm-none-eabi/include/c++/7.3.1/bits/range_access.h ****    *  @param  __arr  Array.
  94:/home/users/aag/code/gcc-arm-none-eabi-7-2018-q2-update/arm-none-eabi/include/c++/7.3.1/bits/range_access.h ****    */
  95:/home/users/aag/code/gcc-arm-none-eabi-7-2018-q2-update/arm-none-eabi/include/c++/7.3.1/bits/range_access.h ****   template<typename _Tp, size_t _Nm>
  96:/home/users/aag/code/gcc-arm-none-eabi-7-2018-q2-update/arm-none-eabi/include/c++/7.3.1/bits/range_access.h ****     inline _GLIBCXX14_CONSTEXPR _Tp*
  97:/home/users/aag/code/gcc-arm-none-eabi-7-2018-q2-update/arm-none-eabi/include/c++/7.3.1/bits/range_access.h ****     end(_Tp (&__arr)[_Nm])
  98:/home/users/aag/code/gcc-arm-none-eabi-7-2018-q2-update/arm-none-eabi/include/c++/7.3.1/bits/range_access.h ****     { return __arr + _Nm; }
 786              		.loc 6 98 0
 787 010c 2100     		movs	r1, r4
 788              	.LBE3271:
 789              	.LBE3270:
 322:../mculib3/src/flash.h ****             if (it == std::end(need_erase)) {
 790              		.loc 5 322 0
 791 010e 2033     		adds	r3, r3, #32
 792              	.LVL86:
 793              	.LBB3273:
 794              	.LBB3274:
 795              	.LBB3275:
 796              	.LBB3276:
 116:/home/users/aag/code/gcc-arm-none-eabi-7-2018-q2-update/arm-none-eabi/include/c++/7.3.1/bits/stl_algo.h **** 
 797              		.loc 2 116 0
 798 0110 1E00     		movs	r6, r3
 799              	.LVL87:
 800              	.LBE3276:
 801              	.LBE3275:
 802              	.LBE3274:
 803              	.LBE3273:
 804              	.LBB3286:
 805              	.LBB3272:
 806              		.loc 6 98 0
 807 0112 2231     		adds	r1, r1, #34
 808              	.LVL88:
 809              	.LBE3272:
 810              	.LBE3286:
 811              	.LBB3287:
 812              	.LBB3283:
 813              	.LBB3280:
 814              	.LBB3277:
 116:/home/users/aag/code/gcc-arm-none-eabi-7-2018-q2-update/arm-none-eabi/include/c++/7.3.1/bits/stl_algo.h **** 
 815              		.loc 2 116 0
 816 0114 CA1A     		subs	r2, r1, r3
ARM GAS  /tmp/ccsVPAmO.s 			page 41


 817 0116 9210     		asrs	r2, r2, #2
 818              	.LVL89:
 819              	.L81:
 118:/home/users/aag/code/gcc-arm-none-eabi-7-2018-q2-update/arm-none-eabi/include/c++/7.3.1/bits/stl_algo.h **** 	{
 820              		.loc 2 118 0
 821 0118 002A     		cmp	r2, #0
 822 011a 20DD     		ble	.L76
 823              	.LVL90:
 120:/home/users/aag/code/gcc-arm-none-eabi-7-2018-q2-update/arm-none-eabi/include/c++/7.3.1/bits/stl_algo.h **** 	    return __first;
 824              		.loc 2 120 0
 825 011c 1F78     		ldrb	r7, [r3]
 826 011e 002F     		cmp	r7, #0
 827 0120 03D1     		bne	.L77
 828              	.LVL91:
 124:/home/users/aag/code/gcc-arm-none-eabi-7-2018-q2-update/arm-none-eabi/include/c++/7.3.1/bits/stl_algo.h **** 	    return __first;
 829              		.loc 2 124 0
 830 0122 5F78     		ldrb	r7, [r3, #1]
 831 0124 002F     		cmp	r7, #0
 832 0126 0DD0     		beq	.L78
 122:/home/users/aag/code/gcc-arm-none-eabi-7-2018-q2-update/arm-none-eabi/include/c++/7.3.1/bits/stl_algo.h **** 
 833              		.loc 2 122 0
 834 0128 0133     		adds	r3, r3, #1
 835              	.LVL92:
 836              	.L77:
 837              	.LBE3277:
 838              	.LBE3280:
 839              	.LBE3283:
 840              	.LBE3287:
 323:../mculib3/src/flash.h ****                 state = return_state;
 841              		.loc 5 323 0
 842 012a 9942     		cmp	r1, r3
 843 012c 21D0     		beq	.L85
 844              	.LBB3288:
 845              	.LBB3289:
 846              	.LBB3290:
 847              		.file 7 "/home/users/aag/code/gcc-arm-none-eabi-7-2018-q2-update/arm-none-eabi/include/c++/7.3.1/b
   1:/home/users/aag/code/gcc-arm-none-eabi-7-2018-q2-update/arm-none-eabi/include/c++/7.3.1/bits/stl_iterator_base_funcs.h **** // Functions used by iterators -*- C++ -*-
   2:/home/users/aag/code/gcc-arm-none-eabi-7-2018-q2-update/arm-none-eabi/include/c++/7.3.1/bits/stl_iterator_base_funcs.h **** 
   3:/home/users/aag/code/gcc-arm-none-eabi-7-2018-q2-update/arm-none-eabi/include/c++/7.3.1/bits/stl_iterator_base_funcs.h **** // Copyright (C) 2001-2017 Free Software Foundation, Inc.
   4:/home/users/aag/code/gcc-arm-none-eabi-7-2018-q2-update/arm-none-eabi/include/c++/7.3.1/bits/stl_iterator_base_funcs.h **** //
   5:/home/users/aag/code/gcc-arm-none-eabi-7-2018-q2-update/arm-none-eabi/include/c++/7.3.1/bits/stl_iterator_base_funcs.h **** // This file is part of the GNU ISO C++ Library.  This library is free
   6:/home/users/aag/code/gcc-arm-none-eabi-7-2018-q2-update/arm-none-eabi/include/c++/7.3.1/bits/stl_iterator_base_funcs.h **** // software; you can redistribute it and/or modify it under the
   7:/home/users/aag/code/gcc-arm-none-eabi-7-2018-q2-update/arm-none-eabi/include/c++/7.3.1/bits/stl_iterator_base_funcs.h **** // terms of the GNU General Public License as published by the
   8:/home/users/aag/code/gcc-arm-none-eabi-7-2018-q2-update/arm-none-eabi/include/c++/7.3.1/bits/stl_iterator_base_funcs.h **** // Free Software Foundation; either version 3, or (at your option)
   9:/home/users/aag/code/gcc-arm-none-eabi-7-2018-q2-update/arm-none-eabi/include/c++/7.3.1/bits/stl_iterator_base_funcs.h **** // any later version.
  10:/home/users/aag/code/gcc-arm-none-eabi-7-2018-q2-update/arm-none-eabi/include/c++/7.3.1/bits/stl_iterator_base_funcs.h **** 
  11:/home/users/aag/code/gcc-arm-none-eabi-7-2018-q2-update/arm-none-eabi/include/c++/7.3.1/bits/stl_iterator_base_funcs.h **** // This library is distributed in the hope that it will be useful,
  12:/home/users/aag/code/gcc-arm-none-eabi-7-2018-q2-update/arm-none-eabi/include/c++/7.3.1/bits/stl_iterator_base_funcs.h **** // but WITHOUT ANY WARRANTY; without even the implied warranty of
  13:/home/users/aag/code/gcc-arm-none-eabi-7-2018-q2-update/arm-none-eabi/include/c++/7.3.1/bits/stl_iterator_base_funcs.h **** // MERCHANTABILITY or FITNESS FOR A PARTICULAR PURPOSE.  See the
  14:/home/users/aag/code/gcc-arm-none-eabi-7-2018-q2-update/arm-none-eabi/include/c++/7.3.1/bits/stl_iterator_base_funcs.h **** // GNU General Public License for more details.
  15:/home/users/aag/code/gcc-arm-none-eabi-7-2018-q2-update/arm-none-eabi/include/c++/7.3.1/bits/stl_iterator_base_funcs.h **** 
  16:/home/users/aag/code/gcc-arm-none-eabi-7-2018-q2-update/arm-none-eabi/include/c++/7.3.1/bits/stl_iterator_base_funcs.h **** // Under Section 7 of GPL version 3, you are granted additional
  17:/home/users/aag/code/gcc-arm-none-eabi-7-2018-q2-update/arm-none-eabi/include/c++/7.3.1/bits/stl_iterator_base_funcs.h **** // permissions described in the GCC Runtime Library Exception, version
  18:/home/users/aag/code/gcc-arm-none-eabi-7-2018-q2-update/arm-none-eabi/include/c++/7.3.1/bits/stl_iterator_base_funcs.h **** // 3.1, as published by the Free Software Foundation.
  19:/home/users/aag/code/gcc-arm-none-eabi-7-2018-q2-update/arm-none-eabi/include/c++/7.3.1/bits/stl_iterator_base_funcs.h **** 
  20:/home/users/aag/code/gcc-arm-none-eabi-7-2018-q2-update/arm-none-eabi/include/c++/7.3.1/bits/stl_iterator_base_funcs.h **** // You should have received a copy of the GNU General Public License and
  21:/home/users/aag/code/gcc-arm-none-eabi-7-2018-q2-update/arm-none-eabi/include/c++/7.3.1/bits/stl_iterator_base_funcs.h **** // a copy of the GCC Runtime Library Exception along with this program;
ARM GAS  /tmp/ccsVPAmO.s 			page 42


  22:/home/users/aag/code/gcc-arm-none-eabi-7-2018-q2-update/arm-none-eabi/include/c++/7.3.1/bits/stl_iterator_base_funcs.h **** // see the files COPYING3 and COPYING.RUNTIME respectively.  If not, see
  23:/home/users/aag/code/gcc-arm-none-eabi-7-2018-q2-update/arm-none-eabi/include/c++/7.3.1/bits/stl_iterator_base_funcs.h **** // <http://www.gnu.org/licenses/>.
  24:/home/users/aag/code/gcc-arm-none-eabi-7-2018-q2-update/arm-none-eabi/include/c++/7.3.1/bits/stl_iterator_base_funcs.h **** 
  25:/home/users/aag/code/gcc-arm-none-eabi-7-2018-q2-update/arm-none-eabi/include/c++/7.3.1/bits/stl_iterator_base_funcs.h **** /*
  26:/home/users/aag/code/gcc-arm-none-eabi-7-2018-q2-update/arm-none-eabi/include/c++/7.3.1/bits/stl_iterator_base_funcs.h ****  *
  27:/home/users/aag/code/gcc-arm-none-eabi-7-2018-q2-update/arm-none-eabi/include/c++/7.3.1/bits/stl_iterator_base_funcs.h ****  * Copyright (c) 1994
  28:/home/users/aag/code/gcc-arm-none-eabi-7-2018-q2-update/arm-none-eabi/include/c++/7.3.1/bits/stl_iterator_base_funcs.h ****  * Hewlett-Packard Company
  29:/home/users/aag/code/gcc-arm-none-eabi-7-2018-q2-update/arm-none-eabi/include/c++/7.3.1/bits/stl_iterator_base_funcs.h ****  *
  30:/home/users/aag/code/gcc-arm-none-eabi-7-2018-q2-update/arm-none-eabi/include/c++/7.3.1/bits/stl_iterator_base_funcs.h ****  * Permission to use, copy, modify, distribute and sell this software
  31:/home/users/aag/code/gcc-arm-none-eabi-7-2018-q2-update/arm-none-eabi/include/c++/7.3.1/bits/stl_iterator_base_funcs.h ****  * and its documentation for any purpose is hereby granted without fee,
  32:/home/users/aag/code/gcc-arm-none-eabi-7-2018-q2-update/arm-none-eabi/include/c++/7.3.1/bits/stl_iterator_base_funcs.h ****  * provided that the above copyright notice appear in all copies and
  33:/home/users/aag/code/gcc-arm-none-eabi-7-2018-q2-update/arm-none-eabi/include/c++/7.3.1/bits/stl_iterator_base_funcs.h ****  * that both that copyright notice and this permission notice appear
  34:/home/users/aag/code/gcc-arm-none-eabi-7-2018-q2-update/arm-none-eabi/include/c++/7.3.1/bits/stl_iterator_base_funcs.h ****  * in supporting documentation.  Hewlett-Packard Company makes no
  35:/home/users/aag/code/gcc-arm-none-eabi-7-2018-q2-update/arm-none-eabi/include/c++/7.3.1/bits/stl_iterator_base_funcs.h ****  * representations about the suitability of this software for any
  36:/home/users/aag/code/gcc-arm-none-eabi-7-2018-q2-update/arm-none-eabi/include/c++/7.3.1/bits/stl_iterator_base_funcs.h ****  * purpose.  It is provided "as is" without express or implied warranty.
  37:/home/users/aag/code/gcc-arm-none-eabi-7-2018-q2-update/arm-none-eabi/include/c++/7.3.1/bits/stl_iterator_base_funcs.h ****  *
  38:/home/users/aag/code/gcc-arm-none-eabi-7-2018-q2-update/arm-none-eabi/include/c++/7.3.1/bits/stl_iterator_base_funcs.h ****  *
  39:/home/users/aag/code/gcc-arm-none-eabi-7-2018-q2-update/arm-none-eabi/include/c++/7.3.1/bits/stl_iterator_base_funcs.h ****  * Copyright (c) 1996-1998
  40:/home/users/aag/code/gcc-arm-none-eabi-7-2018-q2-update/arm-none-eabi/include/c++/7.3.1/bits/stl_iterator_base_funcs.h ****  * Silicon Graphics Computer Systems, Inc.
  41:/home/users/aag/code/gcc-arm-none-eabi-7-2018-q2-update/arm-none-eabi/include/c++/7.3.1/bits/stl_iterator_base_funcs.h ****  *
  42:/home/users/aag/code/gcc-arm-none-eabi-7-2018-q2-update/arm-none-eabi/include/c++/7.3.1/bits/stl_iterator_base_funcs.h ****  * Permission to use, copy, modify, distribute and sell this software
  43:/home/users/aag/code/gcc-arm-none-eabi-7-2018-q2-update/arm-none-eabi/include/c++/7.3.1/bits/stl_iterator_base_funcs.h ****  * and its documentation for any purpose is hereby granted without fee,
  44:/home/users/aag/code/gcc-arm-none-eabi-7-2018-q2-update/arm-none-eabi/include/c++/7.3.1/bits/stl_iterator_base_funcs.h ****  * provided that the above copyright notice appear in all copies and
  45:/home/users/aag/code/gcc-arm-none-eabi-7-2018-q2-update/arm-none-eabi/include/c++/7.3.1/bits/stl_iterator_base_funcs.h ****  * that both that copyright notice and this permission notice appear
  46:/home/users/aag/code/gcc-arm-none-eabi-7-2018-q2-update/arm-none-eabi/include/c++/7.3.1/bits/stl_iterator_base_funcs.h ****  * in supporting documentation.  Silicon Graphics makes no
  47:/home/users/aag/code/gcc-arm-none-eabi-7-2018-q2-update/arm-none-eabi/include/c++/7.3.1/bits/stl_iterator_base_funcs.h ****  * representations about the suitability of this software for any
  48:/home/users/aag/code/gcc-arm-none-eabi-7-2018-q2-update/arm-none-eabi/include/c++/7.3.1/bits/stl_iterator_base_funcs.h ****  * purpose.  It is provided "as is" without express or implied warranty.
  49:/home/users/aag/code/gcc-arm-none-eabi-7-2018-q2-update/arm-none-eabi/include/c++/7.3.1/bits/stl_iterator_base_funcs.h ****  */
  50:/home/users/aag/code/gcc-arm-none-eabi-7-2018-q2-update/arm-none-eabi/include/c++/7.3.1/bits/stl_iterator_base_funcs.h **** 
  51:/home/users/aag/code/gcc-arm-none-eabi-7-2018-q2-update/arm-none-eabi/include/c++/7.3.1/bits/stl_iterator_base_funcs.h **** /** @file bits/stl_iterator_base_funcs.h
  52:/home/users/aag/code/gcc-arm-none-eabi-7-2018-q2-update/arm-none-eabi/include/c++/7.3.1/bits/stl_iterator_base_funcs.h ****  *  This is an internal header file, included by other library headers.
  53:/home/users/aag/code/gcc-arm-none-eabi-7-2018-q2-update/arm-none-eabi/include/c++/7.3.1/bits/stl_iterator_base_funcs.h ****  *  Do not attempt to use it directly. @headername{iterator}
  54:/home/users/aag/code/gcc-arm-none-eabi-7-2018-q2-update/arm-none-eabi/include/c++/7.3.1/bits/stl_iterator_base_funcs.h ****  *
  55:/home/users/aag/code/gcc-arm-none-eabi-7-2018-q2-update/arm-none-eabi/include/c++/7.3.1/bits/stl_iterator_base_funcs.h ****  *  This file contains all of the general iterator-related utility
  56:/home/users/aag/code/gcc-arm-none-eabi-7-2018-q2-update/arm-none-eabi/include/c++/7.3.1/bits/stl_iterator_base_funcs.h ****  *  functions, such as distance() and advance().
  57:/home/users/aag/code/gcc-arm-none-eabi-7-2018-q2-update/arm-none-eabi/include/c++/7.3.1/bits/stl_iterator_base_funcs.h ****  */
  58:/home/users/aag/code/gcc-arm-none-eabi-7-2018-q2-update/arm-none-eabi/include/c++/7.3.1/bits/stl_iterator_base_funcs.h **** 
  59:/home/users/aag/code/gcc-arm-none-eabi-7-2018-q2-update/arm-none-eabi/include/c++/7.3.1/bits/stl_iterator_base_funcs.h **** #ifndef _STL_ITERATOR_BASE_FUNCS_H
  60:/home/users/aag/code/gcc-arm-none-eabi-7-2018-q2-update/arm-none-eabi/include/c++/7.3.1/bits/stl_iterator_base_funcs.h **** #define _STL_ITERATOR_BASE_FUNCS_H 1
  61:/home/users/aag/code/gcc-arm-none-eabi-7-2018-q2-update/arm-none-eabi/include/c++/7.3.1/bits/stl_iterator_base_funcs.h **** 
  62:/home/users/aag/code/gcc-arm-none-eabi-7-2018-q2-update/arm-none-eabi/include/c++/7.3.1/bits/stl_iterator_base_funcs.h **** #pragma GCC system_header
  63:/home/users/aag/code/gcc-arm-none-eabi-7-2018-q2-update/arm-none-eabi/include/c++/7.3.1/bits/stl_iterator_base_funcs.h **** 
  64:/home/users/aag/code/gcc-arm-none-eabi-7-2018-q2-update/arm-none-eabi/include/c++/7.3.1/bits/stl_iterator_base_funcs.h **** #include <bits/concept_check.h>
  65:/home/users/aag/code/gcc-arm-none-eabi-7-2018-q2-update/arm-none-eabi/include/c++/7.3.1/bits/stl_iterator_base_funcs.h **** #include <debug/assertions.h>
  66:/home/users/aag/code/gcc-arm-none-eabi-7-2018-q2-update/arm-none-eabi/include/c++/7.3.1/bits/stl_iterator_base_funcs.h **** 
  67:/home/users/aag/code/gcc-arm-none-eabi-7-2018-q2-update/arm-none-eabi/include/c++/7.3.1/bits/stl_iterator_base_funcs.h **** namespace std _GLIBCXX_VISIBILITY(default)
  68:/home/users/aag/code/gcc-arm-none-eabi-7-2018-q2-update/arm-none-eabi/include/c++/7.3.1/bits/stl_iterator_base_funcs.h **** {
  69:/home/users/aag/code/gcc-arm-none-eabi-7-2018-q2-update/arm-none-eabi/include/c++/7.3.1/bits/stl_iterator_base_funcs.h **** _GLIBCXX_BEGIN_NAMESPACE_CONTAINER
  70:/home/users/aag/code/gcc-arm-none-eabi-7-2018-q2-update/arm-none-eabi/include/c++/7.3.1/bits/stl_iterator_base_funcs.h ****   // Forward declaration for the overloads of __distance.
  71:/home/users/aag/code/gcc-arm-none-eabi-7-2018-q2-update/arm-none-eabi/include/c++/7.3.1/bits/stl_iterator_base_funcs.h ****   template <typename> struct _List_iterator;
  72:/home/users/aag/code/gcc-arm-none-eabi-7-2018-q2-update/arm-none-eabi/include/c++/7.3.1/bits/stl_iterator_base_funcs.h ****   template <typename> struct _List_const_iterator;
  73:/home/users/aag/code/gcc-arm-none-eabi-7-2018-q2-update/arm-none-eabi/include/c++/7.3.1/bits/stl_iterator_base_funcs.h **** _GLIBCXX_END_NAMESPACE_CONTAINER
  74:/home/users/aag/code/gcc-arm-none-eabi-7-2018-q2-update/arm-none-eabi/include/c++/7.3.1/bits/stl_iterator_base_funcs.h **** 
  75:/home/users/aag/code/gcc-arm-none-eabi-7-2018-q2-update/arm-none-eabi/include/c++/7.3.1/bits/stl_iterator_base_funcs.h **** _GLIBCXX_BEGIN_NAMESPACE_VERSION
  76:/home/users/aag/code/gcc-arm-none-eabi-7-2018-q2-update/arm-none-eabi/include/c++/7.3.1/bits/stl_iterator_base_funcs.h **** 
  77:/home/users/aag/code/gcc-arm-none-eabi-7-2018-q2-update/arm-none-eabi/include/c++/7.3.1/bits/stl_iterator_base_funcs.h ****   template<typename _InputIterator>
  78:/home/users/aag/code/gcc-arm-none-eabi-7-2018-q2-update/arm-none-eabi/include/c++/7.3.1/bits/stl_iterator_base_funcs.h ****     inline _GLIBCXX14_CONSTEXPR
ARM GAS  /tmp/ccsVPAmO.s 			page 43


  79:/home/users/aag/code/gcc-arm-none-eabi-7-2018-q2-update/arm-none-eabi/include/c++/7.3.1/bits/stl_iterator_base_funcs.h ****     typename iterator_traits<_InputIterator>::difference_type
  80:/home/users/aag/code/gcc-arm-none-eabi-7-2018-q2-update/arm-none-eabi/include/c++/7.3.1/bits/stl_iterator_base_funcs.h ****     __distance(_InputIterator __first, _InputIterator __last,
  81:/home/users/aag/code/gcc-arm-none-eabi-7-2018-q2-update/arm-none-eabi/include/c++/7.3.1/bits/stl_iterator_base_funcs.h ****                input_iterator_tag)
  82:/home/users/aag/code/gcc-arm-none-eabi-7-2018-q2-update/arm-none-eabi/include/c++/7.3.1/bits/stl_iterator_base_funcs.h ****     {
  83:/home/users/aag/code/gcc-arm-none-eabi-7-2018-q2-update/arm-none-eabi/include/c++/7.3.1/bits/stl_iterator_base_funcs.h ****       // concept requirements
  84:/home/users/aag/code/gcc-arm-none-eabi-7-2018-q2-update/arm-none-eabi/include/c++/7.3.1/bits/stl_iterator_base_funcs.h ****       __glibcxx_function_requires(_InputIteratorConcept<_InputIterator>)
  85:/home/users/aag/code/gcc-arm-none-eabi-7-2018-q2-update/arm-none-eabi/include/c++/7.3.1/bits/stl_iterator_base_funcs.h **** 
  86:/home/users/aag/code/gcc-arm-none-eabi-7-2018-q2-update/arm-none-eabi/include/c++/7.3.1/bits/stl_iterator_base_funcs.h ****       typename iterator_traits<_InputIterator>::difference_type __n = 0;
  87:/home/users/aag/code/gcc-arm-none-eabi-7-2018-q2-update/arm-none-eabi/include/c++/7.3.1/bits/stl_iterator_base_funcs.h ****       while (__first != __last)
  88:/home/users/aag/code/gcc-arm-none-eabi-7-2018-q2-update/arm-none-eabi/include/c++/7.3.1/bits/stl_iterator_base_funcs.h **** 	{
  89:/home/users/aag/code/gcc-arm-none-eabi-7-2018-q2-update/arm-none-eabi/include/c++/7.3.1/bits/stl_iterator_base_funcs.h **** 	  ++__first;
  90:/home/users/aag/code/gcc-arm-none-eabi-7-2018-q2-update/arm-none-eabi/include/c++/7.3.1/bits/stl_iterator_base_funcs.h **** 	  ++__n;
  91:/home/users/aag/code/gcc-arm-none-eabi-7-2018-q2-update/arm-none-eabi/include/c++/7.3.1/bits/stl_iterator_base_funcs.h **** 	}
  92:/home/users/aag/code/gcc-arm-none-eabi-7-2018-q2-update/arm-none-eabi/include/c++/7.3.1/bits/stl_iterator_base_funcs.h ****       return __n;
  93:/home/users/aag/code/gcc-arm-none-eabi-7-2018-q2-update/arm-none-eabi/include/c++/7.3.1/bits/stl_iterator_base_funcs.h ****     }
  94:/home/users/aag/code/gcc-arm-none-eabi-7-2018-q2-update/arm-none-eabi/include/c++/7.3.1/bits/stl_iterator_base_funcs.h **** 
  95:/home/users/aag/code/gcc-arm-none-eabi-7-2018-q2-update/arm-none-eabi/include/c++/7.3.1/bits/stl_iterator_base_funcs.h ****   template<typename _RandomAccessIterator>
  96:/home/users/aag/code/gcc-arm-none-eabi-7-2018-q2-update/arm-none-eabi/include/c++/7.3.1/bits/stl_iterator_base_funcs.h ****     inline _GLIBCXX14_CONSTEXPR
  97:/home/users/aag/code/gcc-arm-none-eabi-7-2018-q2-update/arm-none-eabi/include/c++/7.3.1/bits/stl_iterator_base_funcs.h ****     typename iterator_traits<_RandomAccessIterator>::difference_type
  98:/home/users/aag/code/gcc-arm-none-eabi-7-2018-q2-update/arm-none-eabi/include/c++/7.3.1/bits/stl_iterator_base_funcs.h ****     __distance(_RandomAccessIterator __first, _RandomAccessIterator __last,
  99:/home/users/aag/code/gcc-arm-none-eabi-7-2018-q2-update/arm-none-eabi/include/c++/7.3.1/bits/stl_iterator_base_funcs.h ****                random_access_iterator_tag)
 100:/home/users/aag/code/gcc-arm-none-eabi-7-2018-q2-update/arm-none-eabi/include/c++/7.3.1/bits/stl_iterator_base_funcs.h ****     {
 101:/home/users/aag/code/gcc-arm-none-eabi-7-2018-q2-update/arm-none-eabi/include/c++/7.3.1/bits/stl_iterator_base_funcs.h ****       // concept requirements
 102:/home/users/aag/code/gcc-arm-none-eabi-7-2018-q2-update/arm-none-eabi/include/c++/7.3.1/bits/stl_iterator_base_funcs.h ****       __glibcxx_function_requires(_RandomAccessIteratorConcept<
 103:/home/users/aag/code/gcc-arm-none-eabi-7-2018-q2-update/arm-none-eabi/include/c++/7.3.1/bits/stl_iterator_base_funcs.h **** 				  _RandomAccessIterator>)
 104:/home/users/aag/code/gcc-arm-none-eabi-7-2018-q2-update/arm-none-eabi/include/c++/7.3.1/bits/stl_iterator_base_funcs.h ****       return __last - __first;
 848              		.loc 7 104 0
 849 012e 9B1B     		subs	r3, r3, r6
 850              	.LBE3290:
 851              	.LBE3289:
 852              	.LBE3288:
 327:../mculib3/src/flash.h ****             flash.unlock()
 853              		.loc 5 327 0
 854 0130 6362     		str	r3, [r4, #36]
 328:../mculib3/src/flash.h ****                 .start_erase(sectors[erase_index]);
 855              		.loc 5 328 0
 856 0132 FFF7FEFF 		bl	_ZN3mcu5FLASH6unlockEv
 857              	.LVL93:
 858 0136 636A     		ldr	r3, [r4, #36]
 859 0138 3D4A     		ldr	r2, .L128
 860 013a D15C     		ldrb	r1, [r2, r3]
 861 013c FFF7FEFF 		bl	_ZN3mcu5FLASH11start_eraseENS0_6SectorE
 862              	.LVL94:
 330:../mculib3/src/flash.h ****         }
 863              		.loc 5 330 0
 864 0140 0423     		movs	r3, #4
 865 0142 C5E7     		b	.L125
 866              	.LVL95:
 867              	.L78:
 868              	.LBB3291:
 869              	.LBB3284:
 870              	.LBB3281:
 871              	.LBB3278:
 128:/home/users/aag/code/gcc-arm-none-eabi-7-2018-q2-update/arm-none-eabi/include/c++/7.3.1/bits/stl_algo.h **** 	    return __first;
 872              		.loc 2 128 0
 873 0144 9F78     		ldrb	r7, [r3, #2]
 874 0146 002F     		cmp	r7, #0
ARM GAS  /tmp/ccsVPAmO.s 			page 44


 875 0148 01D0     		beq	.L79
 126:/home/users/aag/code/gcc-arm-none-eabi-7-2018-q2-update/arm-none-eabi/include/c++/7.3.1/bits/stl_algo.h **** 
 876              		.loc 2 126 0
 877 014a 0233     		adds	r3, r3, #2
 878              	.LVL96:
 879 014c EDE7     		b	.L77
 880              	.LVL97:
 881              	.L79:
 132:/home/users/aag/code/gcc-arm-none-eabi-7-2018-q2-update/arm-none-eabi/include/c++/7.3.1/bits/stl_algo.h **** 	    return __first;
 882              		.loc 2 132 0
 883 014e DF78     		ldrb	r7, [r3, #3]
 884 0150 002F     		cmp	r7, #0
 885 0152 01D0     		beq	.L80
 130:/home/users/aag/code/gcc-arm-none-eabi-7-2018-q2-update/arm-none-eabi/include/c++/7.3.1/bits/stl_algo.h **** 
 886              		.loc 2 130 0
 887 0154 0333     		adds	r3, r3, #3
 888              	.LVL98:
 889 0156 E8E7     		b	.L77
 890              	.LVL99:
 891              	.L80:
 892 0158 0433     		adds	r3, r3, #4
 893              	.LVL100:
 118:/home/users/aag/code/gcc-arm-none-eabi-7-2018-q2-update/arm-none-eabi/include/c++/7.3.1/bits/stl_algo.h **** 	{
 894              		.loc 2 118 0
 895 015a 013A     		subs	r2, r2, #1
 896              	.LVL101:
 897 015c DCE7     		b	.L81
 898              	.LVL102:
 899              	.L76:
 137:/home/users/aag/code/gcc-arm-none-eabi-7-2018-q2-update/arm-none-eabi/include/c++/7.3.1/bits/stl_algo.h **** 	{
 900              		.loc 2 137 0
 901 015e CA1A     		subs	r2, r1, r3
 902              	.LVL103:
 903 0160 022A     		cmp	r2, #2
 904 0162 0DD0     		beq	.L82
 905 0164 032A     		cmp	r2, #3
 906 0166 07D0     		beq	.L83
 907 0168 012A     		cmp	r2, #1
 908 016a 0ED1     		bne	.L124
 909              	.L84:
 910              	.LVL104:
 148:/home/users/aag/code/gcc-arm-none-eabi-7-2018-q2-update/arm-none-eabi/include/c++/7.3.1/bits/stl_algo.h **** 	    return __first;
 911              		.loc 2 148 0
 912 016c 1A78     		ldrb	r2, [r3]
 913 016e 002A     		cmp	r2, #0
 914 0170 DBD1     		bne	.L77
 915              	.LVL105:
 916              	.L85:
 917              	.LBE3278:
 918              	.LBE3281:
 919              	.LBE3284:
 920              	.LBE3291:
 324:../mculib3/src/flash.h ****                 break;
 921              		.loc 5 324 0
 922 0172 3E34     		adds	r4, r4, #62
 923              	.LVL106:
 924 0174 2378     		ldrb	r3, [r4]
ARM GAS  /tmp/ccsVPAmO.s 			page 45


 925 0176 AAE7     		b	.L127
 926              	.LVL107:
 927              	.L83:
 928              	.LBB3292:
 929              	.LBB3285:
 930              	.LBB3282:
 931              	.LBB3279:
 140:/home/users/aag/code/gcc-arm-none-eabi-7-2018-q2-update/arm-none-eabi/include/c++/7.3.1/bits/stl_algo.h **** 	    return __first;
 932              		.loc 2 140 0
 933 0178 1A78     		ldrb	r2, [r3]
 934 017a 002A     		cmp	r2, #0
 935 017c D5D1     		bne	.L77
 142:/home/users/aag/code/gcc-arm-none-eabi-7-2018-q2-update/arm-none-eabi/include/c++/7.3.1/bits/stl_algo.h **** 	case 2:
 936              		.loc 2 142 0
 937 017e 0133     		adds	r3, r3, #1
 938              	.LVL108:
 939              	.L82:
 144:/home/users/aag/code/gcc-arm-none-eabi-7-2018-q2-update/arm-none-eabi/include/c++/7.3.1/bits/stl_algo.h **** 	    return __first;
 940              		.loc 2 144 0
 941 0180 1A78     		ldrb	r2, [r3]
 942 0182 002A     		cmp	r2, #0
 943 0184 D1D1     		bne	.L77
 146:/home/users/aag/code/gcc-arm-none-eabi-7-2018-q2-update/arm-none-eabi/include/c++/7.3.1/bits/stl_algo.h **** 	case 1:
 944              		.loc 2 146 0
 945 0186 0133     		adds	r3, r3, #1
 946              	.LVL109:
 947 0188 F0E7     		b	.L84
 948              	.LVL110:
 949              	.L124:
 153:/home/users/aag/code/gcc-arm-none-eabi-7-2018-q2-update/arm-none-eabi/include/c++/7.3.1/bits/stl_algo.h **** 	}
 950              		.loc 2 153 0
 951 018a 0B00     		movs	r3, r1
 952              	.LVL111:
 953 018c CDE7     		b	.L77
 954              	.LVL112:
 955              	.L70:
 956              	.LBE3279:
 957              	.LBE3282:
 958              	.LBE3285:
 959              	.LBE3292:
 960              	.LBE3297:
 961              	.LBE3304:
 962              	.LBB3305:
 335:../mculib3/src/flash.h ****             flash.clear_flag_endOfProg()
 963              		.loc 5 335 0
 964 018e 2369     		ldr	r3, [r4, #16]
 965              	.LVL113:
 966              	.LBB3306:
 967              	.LBB3307:
  35:../mculib3/src/periph/flash_f0.h ****    FLASH& clear_flag_endOfProg()     { SR.EOP      = true; return *this; }
 968              		.loc 4 35 0
 969 0190 DA68     		ldr	r2, [r3, #12]
 970              	.LBE3307:
 971              	.LBE3306:
 335:../mculib3/src/flash.h ****             flash.clear_flag_endOfProg()
 972              		.loc 5 335 0
 973 0192 9206     		lsls	r2, r2, #26
ARM GAS  /tmp/ccsVPAmO.s 			page 46


 974 0194 00D4     		bmi	.LCB1295
 975 0196 57E7     		b	.L63	@long jump
 976              	.LCB1295:
 977              	.LVL114:
 978              	.LBB3308:
 979              	.LBB3309:
 980              	.LBB3310:
  36:../mculib3/src/periph/flash_f0.h ****    bool   is_busy()                  { return SR.BSY;                    }
 981              		.loc 4 36 0
 982 0198 2022     		movs	r2, #32
 983 019a D968     		ldr	r1, [r3, #12]
 984              	.LBE3310:
 985              	.LBE3309:
 986              	.LBB3312:
 987              	.LBB3313:
 988              	.LBB3314:
 989              	.LBB3315:
 990              	.LBB3316:
 104:/home/users/aag/code/gcc-arm-none-eabi-7-2018-q2-update/arm-none-eabi/include/c++/7.3.1/bits/stl_algo.h **** 	++__first;
 991              		.loc 2 104 0
 992 019c 254E     		ldr	r6, .L128+4
 993              	.LVL115:
 994              	.LBE3316:
 995              	.LBE3315:
 996              	.LBE3314:
 997              	.LBE3313:
 998              	.LBE3312:
 999              	.LBB3325:
 1000              	.LBB3311:
  36:../mculib3/src/periph/flash_f0.h ****    bool   is_busy()                  { return SR.BSY;                    }
 1001              		.loc 4 36 0
 1002 019e 0A43     		orrs	r2, r1
 1003 01a0 DA60     		str	r2, [r3, #12]
 1004              	.LVL116:
 1005              	.LBE3311:
 1006              	.LBE3325:
 1007              	.LBB3326:
 1008              	.LBB3327:
  31:../mculib3/src/periph/flash_f0.h ****    bool   is_lock()                  { return CR.LOCK;                   }
 1009              		.loc 4 31 0
 1010 01a2 8022     		movs	r2, #128
 1011 01a4 1969     		ldr	r1, [r3, #16]
 1012 01a6 0A43     		orrs	r2, r1
 1013 01a8 1A61     		str	r2, [r3, #16]
 1014              	.LBE3327:
 1015              	.LBE3326:
 338:../mculib3/src/flash.h ****                 return word.data == 0xFFFF;
 1016              		.loc 5 338 0
 1017 01aa 616A     		ldr	r1, [r4, #36]
 1018              	.LBB3328:
 1019              	.LBB3329:
  49:/home/users/aag/code/gcc-arm-none-eabi-7-2018-q2-update/arm-none-eabi/include/c++/7.3.1/bits/range_access.h **** 
 1020              		.loc 6 49 0
 1021 01ac CB00     		lsls	r3, r1, #3
 1022 01ae E318     		adds	r3, r4, r3
 1023 01b0 9A6A     		ldr	r2, [r3, #40]
 1024              	.LVL117:
ARM GAS  /tmp/ccsVPAmO.s 			page 47


 1025              	.LBE3329:
 1026              	.LBE3328:
 1027              	.LBB3330:
 1028              	.LBB3331:
 1029              	.LBB3332:
  73:../mculib3/src/flash.h **** };
 1030              		.loc 5 73 0
 1031 01b2 DB6A     		ldr	r3, [r3, #44]
 1032 01b4 5B00     		lsls	r3, r3, #1
 1033 01b6 D318     		adds	r3, r2, r3
 1034              	.LVL118:
 1035              	.L88:
 1036 01b8 1000     		movs	r0, r2
 1037              	.LVL119:
 1038              	.LBE3332:
 1039              	.LBE3331:
 1040              	.LBE3330:
 1041              	.LBB3333:
 1042              	.LBB3323:
 1043              	.LBB3321:
 1044              	.LBB3319:
 1045              	.LBB3317:
 104:/home/users/aag/code/gcc-arm-none-eabi-7-2018-q2-update/arm-none-eabi/include/c++/7.3.1/bits/stl_algo.h **** 	++__first;
 1046              		.loc 2 104 0
 1047 01ba 9342     		cmp	r3, r2
 1048 01bc 17D0     		beq	.L96
 1049              	.LVL120:
 1050 01be 0232     		adds	r2, r2, #2
 1051              	.LVL121:
 1052 01c0 971E     		subs	r7, r2, #2
 1053 01c2 3F88     		ldrh	r7, [r7]
 1054 01c4 B742     		cmp	r7, r6
 1055 01c6 F7D0     		beq	.L88
 1056              	.LVL122:
 1057              	.L87:
 1058              	.LBE3317:
 1059              	.LBE3319:
 1060              	.LBE3321:
 1061              	.LBE3323:
 1062              	.LBE3333:
 341:../mculib3/src/flash.h ****             state = is_need_erase() ? erase : check_changes;
 1063              		.loc 5 341 0
 1064 01c8 1B1A     		subs	r3, r3, r0
 1065              	.LBB3334:
 1066              	.LBB3335:
 1067              	.LBB3336:
 1068              	.LBB3337:
 1069              		.loc 6 98 0
 1070 01ca 2600     		movs	r6, r4
 1071              	.LBE3337:
 1072              	.LBE3336:
 1073              	.LBE3335:
 1074              	.LBE3334:
 341:../mculib3/src/flash.h ****             state = is_need_erase() ? erase : check_changes;
 1075              		.loc 5 341 0
 1076 01cc 6218     		adds	r2, r4, r1
 1077              	.LBB3348:
ARM GAS  /tmp/ccsVPAmO.s 			page 48


 1078              	.LBB3345:
 356:../mculib3/src/flash.h **** 
 357:../mculib3/src/flash.h **** 
 358:../mculib3/src/flash.h **** 
 359:../mculib3/src/flash.h **** template <class Data, FLASH_::Sector ... sector>
 360:../mculib3/src/flash.h **** bool Flash_updater_impl<Data,sector...>::is_need_erase() {
 361:../mculib3/src/flash.h ****     return std::any_of(std::begin(need_erase), std::end(need_erase), [](auto& v){return v;});
 1079              		.loc 5 361 0
 1080 01ce 2000     		movs	r0, r4
 1081              	.LBE3345:
 1082              	.LBE3348:
 341:../mculib3/src/flash.h ****             state = is_need_erase() ? erase : check_changes;
 1083              		.loc 5 341 0
 1084 01d0 591E     		subs	r1, r3, #1
 1085 01d2 8B41     		sbcs	r3, r3, r1
 1086 01d4 0132     		adds	r2, r2, #1
 1087              	.LBB3349:
 1088              	.LBB3346:
 1089              	.LBB3339:
 1090              	.LBB3338:
 1091              		.loc 6 98 0
 1092 01d6 2236     		adds	r6, r6, #34
 1093              	.LBE3338:
 1094              	.LBE3339:
 1095              	.LBE3346:
 1096              	.LBE3349:
 341:../mculib3/src/flash.h ****             state = is_need_erase() ? erase : check_changes;
 1097              		.loc 5 341 0
 1098 01d8 D377     		strb	r3, [r2, #31]
 1099              	.LVL123:
 1100              	.LBB3350:
 1101              	.LBB3347:
 1102              		.loc 5 361 0
 1103 01da 2030     		adds	r0, r0, #32
 1104              	.LBB3340:
 1105              	.LBB3341:
 1106              	.LBB3342:
 1107              	.LBB3343:
 1108              	.LBB3344:
 156:/home/users/aag/code/gcc-arm-none-eabi-7-2018-q2-update/arm-none-eabi/include/c++/7.3.1/bits/stl_algo.h **** 
 157:/home/users/aag/code/gcc-arm-none-eabi-7-2018-q2-update/arm-none-eabi/include/c++/7.3.1/bits/stl_algo.h ****   template<typename _Iterator, typename _Predicate>
 158:/home/users/aag/code/gcc-arm-none-eabi-7-2018-q2-update/arm-none-eabi/include/c++/7.3.1/bits/stl_algo.h ****     inline _Iterator
 159:/home/users/aag/code/gcc-arm-none-eabi-7-2018-q2-update/arm-none-eabi/include/c++/7.3.1/bits/stl_algo.h ****     __find_if(_Iterator __first, _Iterator __last, _Predicate __pred)
 160:/home/users/aag/code/gcc-arm-none-eabi-7-2018-q2-update/arm-none-eabi/include/c++/7.3.1/bits/stl_algo.h ****     {
 161:/home/users/aag/code/gcc-arm-none-eabi-7-2018-q2-update/arm-none-eabi/include/c++/7.3.1/bits/stl_algo.h ****       return __find_if(__first, __last, __pred,
 162:/home/users/aag/code/gcc-arm-none-eabi-7-2018-q2-update/arm-none-eabi/include/c++/7.3.1/bits/stl_algo.h **** 		       std::__iterator_category(__first));
 1109              		.loc 2 162 0
 1110 01dc 3100     		movs	r1, r6
 1111 01de FFF7FEFF 		bl	_ZSt9__find_ifIPbN9__gnu_cxx5__ops10_Iter_predIZN18Flash_updater_implIZ4mainE10Flash_dataJLN3mc
 1112              	.LVL124:
 1113              	.LBE3344:
 1114              	.LBE3343:
 1115              	.LBE3342:
 1116              	.LBE3341:
 1117              	.LBE3340:
 1118              	.LBE3347:
 1119              	.LBE3350:
ARM GAS  /tmp/ccsVPAmO.s 			page 49


 342:../mculib3/src/flash.h ****         }
 1120              		.loc 5 342 0
 1121 01e2 0323     		movs	r3, #3
 1122 01e4 8642     		cmp	r6, r0
 1123 01e6 00D0     		beq	.LCB1452
 1124 01e8 72E7     		b	.L125	@long jump
 1125              	.LCB1452:
 1126 01ea 0023     		movs	r3, #0
 1127 01ec 70E7     		b	.L125
 1128              	.LVL125:
 1129              	.L96:
 1130              	.LBB3351:
 1131              	.LBB3324:
 1132              	.LBB3322:
 1133              	.LBB3320:
 1134              	.LBB3318:
 104:/home/users/aag/code/gcc-arm-none-eabi-7-2018-q2-update/arm-none-eabi/include/c++/7.3.1/bits/stl_algo.h **** 	++__first;
 1135              		.loc 2 104 0
 1136 01ee 1800     		movs	r0, r3
 1137              	.LVL126:
 1138 01f0 EAE7     		b	.L87
 1139              	.LVL127:
 1140              	.L71:
 1141              	.LBE3318:
 1142              	.LBE3320:
 1143              	.LBE3322:
 1144              	.LBE3324:
 1145              	.LBE3351:
 1146              	.LBE3308:
 1147              	.LBE3305:
 1148              	.LBB3352:
 1149              	.LBB3353:
  23:../mculib3/src/flash.h ****     inline Int operator--(int)   { return value = (value == 0) ? n : value - 1; }
 1150              		.loc 5 23 0
 1151 01f2 2200     		movs	r2, r4
 1152 01f4 4032     		adds	r2, r2, #64
 1153 01f6 1378     		ldrb	r3, [r2]
 1154 01f8 0133     		adds	r3, r3, #1
 1155 01fa DBB2     		uxtb	r3, r3
 1156 01fc 012B     		cmp	r3, #1
 1157 01fe 11D9     		bls	.L90
 1158 0200 0023     		movs	r3, #0
 1159 0202 1370     		strb	r3, [r2]
 1160              	.LVL128:
 1161              	.L91:
 1162              	.LBE3353:
 1163              	.LBE3352:
 1164              	.LBB3355:
 1165              	.LBB3356:
 1166              	.LBB3357:
 1167              	.LBB3358:
 1168              	.LBB3359:
 1169              	.LBB3360:
 1170              	.LBB3361:
 1171              		.loc 2 162 0
 1172 0204 2600     		movs	r6, r4
 1173              	.LVL129:
ARM GAS  /tmp/ccsVPAmO.s 			page 50


 1174 0206 2000     		movs	r0, r4
 1175 0208 2236     		adds	r6, r6, #34
 1176 020a 3100     		movs	r1, r6
 1177 020c 2030     		adds	r0, r0, #32
 1178 020e FFF7FEFF 		bl	_ZSt9__find_ifIPbN9__gnu_cxx5__ops10_Iter_predIZN18Flash_updater_implIZ4mainE10Flash_dataJLN3mc
 1179              	.LVL130:
 1180              	.LBE3361:
 1181              	.LBE3360:
 1182              	.LBE3359:
 1183              	.LBE3358:
 1184              	.LBE3357:
 1185              	.LBE3356:
 1186              	.LBE3355:
 350:../mculib3/src/flash.h ****             return_state = check_changes;
 1187              		.loc 5 350 0
 1188 0212 0323     		movs	r3, #3
 1189 0214 8642     		cmp	r6, r0
 1190 0216 00D1     		bne	.L92
 1191 0218 0023     		movs	r3, #0
 1192              	.L92:
 350:../mculib3/src/flash.h ****             return_state = check_changes;
 1193              		.loc 5 350 0 is_stmt 0 discriminator 4
 1194 021a 2B70     		strb	r3, [r5]
 351:../mculib3/src/flash.h ****         }
 1195              		.loc 5 351 0 is_stmt 1 discriminator 4
 1196 021c 0023     		movs	r3, #0
 1197 021e 3E34     		adds	r4, r4, #62
 1198              	.LVL131:
 1199 0220 2370     		strb	r3, [r4]
 1200              	.LBE3363:
 1201              	.LBE3366:
 355:../mculib3/src/flash.h **** 
 1202              		.loc 5 355 0 discriminator 4
 1203 0222 11E7     		b	.L63
 1204              	.LVL132:
 1205              	.L90:
 1206              	.LBB3367:
 1207              	.LBB3364:
 1208              	.LBB3362:
 1209              	.LBB3354:
  23:../mculib3/src/flash.h ****     inline Int operator--(int)   { return value = (value == 0) ? n : value - 1; }
 1210              		.loc 5 23 0
 1211 0224 1370     		strb	r3, [r2]
 1212              	.LVL133:
 1213              	.LBE3354:
 1214              	.LBE3362:
 347:../mculib3/src/flash.h ****             state = start_write;
 1215              		.loc 5 347 0
 1216 0226 002B     		cmp	r3, #0
 1217 0228 ECD0     		beq	.L91
 1218              	.L126:
 348:../mculib3/src/flash.h ****         } else {
 1219              		.loc 5 348 0
 1220 022a 0123     		movs	r3, #1
 1221 022c 50E7     		b	.L125
 1222              	.L129:
 1223 022e C046     		.align	2
ARM GAS  /tmp/ccsVPAmO.s 			page 51


 1224              	.L128:
 1225 0230 00000000 		.word	.LANCHOR0
 1226 0234 FFFF0000 		.word	65535
 1227              	.LBE3364:
 1228              	.LBE3367:
 1229              		.cfi_endproc
 1230              	.LFE5656:
 1232              		.section	.text._ZN9Publisher6notifyEv,"axG",%progbits,_ZN9Publisher6notifyEv,comdat
 1233              		.align	1
 1234              		.weak	_ZN9Publisher6notifyEv
 1235              		.syntax unified
 1236              		.code	16
 1237              		.thumb_func
 1238              		.fpu softvfp
 1240              	_ZN9Publisher6notifyEv:
 1241              	.LFB2209:
 1242              		.file 8 "../mculib3/src/subscriber.h"
   1:../mculib3/src/subscriber.h **** #pragma once
   2:../mculib3/src/subscriber.h **** 
   3:../mculib3/src/subscriber.h **** #include "list.h"
   4:../mculib3/src/subscriber.h **** #include "systick.h"
   5:../mculib3/src/subscriber.h **** 
   6:../mculib3/src/subscriber.h **** struct Subscriber : Listable<Subscriber> {
   7:../mculib3/src/subscriber.h ****     virtual void notify() = 0;
   8:../mculib3/src/subscriber.h **** };
   9:../mculib3/src/subscriber.h **** 
  10:../mculib3/src/subscriber.h **** struct Publisher : private List<Subscriber>
  11:../mculib3/src/subscriber.h **** {
  12:../mculib3/src/subscriber.h ****     
  13:../mculib3/src/subscriber.h ****     void clear(){clear_subscribe();}
  14:../mculib3/src/subscriber.h ****     void subscribe  (Subscriber& v) { push_back(v); }
  15:../mculib3/src/subscriber.h ****     void unsubscribe(Subscriber& v) { remove(v);    }
  16:../mculib3/src/subscriber.h ****     // ,     subscriber  *this
  17:../mculib3/src/subscriber.h ****     void notify() {
 1243              		.loc 8 17 0
 1244              		.cfi_startproc
 1245              		@ args = 0, pretend = 0, frame = 0
 1246              		@ frame_needed = 0, uses_anonymous_args = 0
 1247              	.LVL134:
 1248 0000 10B5     		push	{r4, lr}
 1249              	.LCFI2:
 1250              		.cfi_def_cfa_offset 8
 1251              		.cfi_offset 4, -8
 1252              		.cfi_offset 14, -4
 1253              	.LBB3368:
  18:../mculib3/src/subscriber.h ****         for (auto& subscriber : *this)
 1254              		.loc 8 18 0
 1255 0002 0468     		ldr	r4, [r0]
 1256              	.LVL135:
 1257              	.L132:
 1258              		.loc 8 18 0 is_stmt 0 discriminator 3
 1259 0004 002C     		cmp	r4, #0
 1260 0006 05D0     		beq	.L130
  19:../mculib3/src/subscriber.h ****             subscriber.notify();
 1261              		.loc 8 19 0 is_stmt 1
 1262 0008 2368     		ldr	r3, [r4]
 1263 000a 2000     		movs	r0, r4
ARM GAS  /tmp/ccsVPAmO.s 			page 52


 1264 000c 1B68     		ldr	r3, [r3]
 1265 000e 9847     		blx	r3
 1266              	.LVL136:
 1267              	.LBB3369:
 1268              	.LBB3370:
 1269              		.file 9 "../mculib3/src/list.h"
   1:../mculib3/src/list.h **** #pragma once
   2:../mculib3/src/list.h **** 
   3:../mculib3/src/list.h **** #include <algorithm>
   4:../mculib3/src/list.h **** 
   5:../mculib3/src/list.h **** 
   6:../mculib3/src/list.h **** template<class T> struct Listable
   7:../mculib3/src/list.h **** {
   8:../mculib3/src/list.h ****    T* prev {nullptr};
   9:../mculib3/src/list.h ****    T* next {nullptr};
  10:../mculib3/src/list.h **** };
  11:../mculib3/src/list.h **** 
  12:../mculib3/src/list.h **** template<class T> class List
  13:../mculib3/src/list.h **** {
  14:../mculib3/src/list.h ****    T* first {nullptr};
  15:../mculib3/src/list.h ****    T* last  {nullptr};
  16:../mculib3/src/list.h **** public:
  17:../mculib3/src/list.h ****    class Iterator
  18:../mculib3/src/list.h ****    {
  19:../mculib3/src/list.h ****       T* p {nullptr};
  20:../mculib3/src/list.h ****    public:
  21:../mculib3/src/list.h ****       using iterator_category = std::input_iterator_tag;
  22:../mculib3/src/list.h ****       using value_type        = T;
  23:../mculib3/src/list.h ****       using difference_type   = T;
  24:../mculib3/src/list.h ****       using pointer           = const T*;
  25:../mculib3/src/list.h ****       using reference         = T;
  26:../mculib3/src/list.h ****       Iterator (T*);
  27:../mculib3/src/list.h ****       Iterator() = default;
  28:../mculib3/src/list.h ****       operator T*() { return p; }
  29:../mculib3/src/list.h ****       T&        operator*  () const;
  30:../mculib3/src/list.h ****       T*        operator-> () const { return p; }
  31:../mculib3/src/list.h ****       bool      operator!= (const Iterator&) const;
  32:../mculib3/src/list.h ****       Iterator& operator++ ();
  33:../mculib3/src/list.h ****    };
  34:../mculib3/src/list.h **** 
  35:../mculib3/src/list.h ****    void clear_subscribe(){first = nullptr; last = nullptr;}
  36:../mculib3/src/list.h ****    void push_back  (T&);
  37:../mculib3/src/list.h ****    void push_front (T&);
  38:../mculib3/src/list.h ****    void remove     (T&);
  39:../mculib3/src/list.h ****    void insert  (Iterator, T&);
  40:../mculib3/src/list.h ****    void clear();
  41:../mculib3/src/list.h ****    Iterator begin();
  42:../mculib3/src/list.h ****    Iterator end();
  43:../mculib3/src/list.h **** };
  44:../mculib3/src/list.h **** 
  45:../mculib3/src/list.h **** 
  46:../mculib3/src/list.h **** 
  47:../mculib3/src/list.h **** 
  48:../mculib3/src/list.h **** 
  49:../mculib3/src/list.h **** 
  50:../mculib3/src/list.h **** template<class T>
  51:../mculib3/src/list.h **** void List<T>::push_back (T& v)
ARM GAS  /tmp/ccsVPAmO.s 			page 53


  52:../mculib3/src/list.h **** {
  53:../mculib3/src/list.h ****    v.prev = last;
  54:../mculib3/src/list.h ****    if (last)
  55:../mculib3/src/list.h ****       last->next = &v;
  56:../mculib3/src/list.h ****    last = &v;
  57:../mculib3/src/list.h ****    if (not first)
  58:../mculib3/src/list.h ****       first = &v;
  59:../mculib3/src/list.h **** }
  60:../mculib3/src/list.h **** 
  61:../mculib3/src/list.h **** 
  62:../mculib3/src/list.h **** template<class T>
  63:../mculib3/src/list.h **** void List<T>::push_front (T& v)
  64:../mculib3/src/list.h **** {
  65:../mculib3/src/list.h ****    v.next = first;
  66:../mculib3/src/list.h ****    if (first)
  67:../mculib3/src/list.h ****       first->prev = &v;
  68:../mculib3/src/list.h ****    first = &v;
  69:../mculib3/src/list.h ****    if (not last)
  70:../mculib3/src/list.h ****       last = &v;
  71:../mculib3/src/list.h **** }
  72:../mculib3/src/list.h **** 
  73:../mculib3/src/list.h **** 
  74:../mculib3/src/list.h **** template<class T>
  75:../mculib3/src/list.h **** void List<T>::remove (T& v)
  76:../mculib3/src/list.h **** {
  77:../mculib3/src/list.h ****    if (v.prev and v.next) {         //   
  78:../mculib3/src/list.h ****       v.prev->next = v.next;
  79:../mculib3/src/list.h ****       v.next->prev = v.prev;
  80:../mculib3/src/list.h ****    } else if (v.next) {             //  
  81:../mculib3/src/list.h ****       first = v.next;
  82:../mculib3/src/list.h ****       first->prev = nullptr;
  83:../mculib3/src/list.h ****       if (not first) last = nullptr;
  84:../mculib3/src/list.h ****    } else if (v.prev) {             //  
  85:../mculib3/src/list.h ****       last = v.prev;
  86:../mculib3/src/list.h ****       last->next = nullptr;
  87:../mculib3/src/list.h ****       if (not last) first = nullptr;
  88:../mculib3/src/list.h ****    } else {                         //   
  89:../mculib3/src/list.h ****       first = nullptr;
  90:../mculib3/src/list.h ****       last  = nullptr;
  91:../mculib3/src/list.h ****    }
  92:../mculib3/src/list.h ****    v.prev = nullptr;
  93:../mculib3/src/list.h ****    v.next = nullptr;
  94:../mculib3/src/list.h **** 
  95:../mculib3/src/list.h **** }
  96:../mculib3/src/list.h **** 
  97:../mculib3/src/list.h **** 
  98:../mculib3/src/list.h **** 
  99:../mculib3/src/list.h **** template<class T>
 100:../mculib3/src/list.h **** void List<T>::insert (typename List<T>::Iterator it, T& v)
 101:../mculib3/src/list.h **** {
 102:../mculib3/src/list.h ****    if (it == begin()) {
 103:../mculib3/src/list.h ****       push_front (v);
 104:../mculib3/src/list.h ****    } else if (it == end()) {
 105:../mculib3/src/list.h ****       push_back (v);
 106:../mculib3/src/list.h ****    } else {
 107:../mculib3/src/list.h ****       v.prev = it->prev;
 108:../mculib3/src/list.h ****       v.next = it;
ARM GAS  /tmp/ccsVPAmO.s 			page 54


 109:../mculib3/src/list.h ****       it->prev = &v;
 110:../mculib3/src/list.h ****       v.prev->next = &v;
 111:../mculib3/src/list.h ****    }
 112:../mculib3/src/list.h **** }
 113:../mculib3/src/list.h **** 
 114:../mculib3/src/list.h **** template<class T>
 115:../mculib3/src/list.h **** void List<T>::clear()
 116:../mculib3/src/list.h **** {
 117:../mculib3/src/list.h ****    for (auto& v : *this) {
 118:../mculib3/src/list.h ****       v.prev = nullptr;
 119:../mculib3/src/list.h ****       v.next = nullptr;
 120:../mculib3/src/list.h ****    }
 121:../mculib3/src/list.h ****    first = nullptr;
 122:../mculib3/src/list.h ****    last  = nullptr;
 123:../mculib3/src/list.h **** }
 124:../mculib3/src/list.h **** 
 125:../mculib3/src/list.h **** 
 126:../mculib3/src/list.h **** template<class T>
 127:../mculib3/src/list.h **** typename List<T>::Iterator List<T>::begin()
 128:../mculib3/src/list.h **** {
 129:../mculib3/src/list.h ****    return List<T>::Iterator {first};
 130:../mculib3/src/list.h **** }
 131:../mculib3/src/list.h **** 
 132:../mculib3/src/list.h **** 
 133:../mculib3/src/list.h **** template<class T>
 134:../mculib3/src/list.h **** typename List<T>::Iterator List<T>::end()
 135:../mculib3/src/list.h **** {
 136:../mculib3/src/list.h ****    return List<T>::Iterator();
 137:../mculib3/src/list.h **** }
 138:../mculib3/src/list.h **** 
 139:../mculib3/src/list.h **** 
 140:../mculib3/src/list.h **** 
 141:../mculib3/src/list.h **** /// Iterator
 142:../mculib3/src/list.h **** template<class T>
 143:../mculib3/src/list.h **** List<T>::Iterator::Iterator (T* other) : p {other} {}
 144:../mculib3/src/list.h **** 
 145:../mculib3/src/list.h **** template<class T>
 146:../mculib3/src/list.h **** T& List<T>::Iterator::operator* () const 
 147:../mculib3/src/list.h **** {
 148:../mculib3/src/list.h ****    return *p;
 149:../mculib3/src/list.h **** }
 150:../mculib3/src/list.h **** 
 151:../mculib3/src/list.h **** template<class T>
 152:../mculib3/src/list.h **** bool List<T>::Iterator::operator!= (const List<T>::Iterator& other) const
 153:../mculib3/src/list.h **** {
 154:../mculib3/src/list.h ****    return p != other.p;
 155:../mculib3/src/list.h **** }
 156:../mculib3/src/list.h **** 
 157:../mculib3/src/list.h **** template<class T>
 158:../mculib3/src/list.h **** typename List<T>::Iterator& List<T>::Iterator::operator++ ()
 159:../mculib3/src/list.h **** {
 160:../mculib3/src/list.h ****    p = p->next;
 1270              		.loc 9 160 0
 1271 0010 A468     		ldr	r4, [r4, #8]
 1272              	.LVL137:
 1273 0012 F7E7     		b	.L132
 1274              	.LVL138:
ARM GAS  /tmp/ccsVPAmO.s 			page 55


 1275              	.L130:
 1276              	.LBE3370:
 1277              	.LBE3369:
 1278              	.LBE3368:
  20:../mculib3/src/subscriber.h ****     }
 1279              		.loc 8 20 0
 1280              		@ sp needed
 1281              	.LVL139:
 1282 0014 10BD     		pop	{r4, pc}
 1283              		.cfi_endproc
 1284              	.LFE2209:
 1286              		.section	.text._ZNSt14_Function_baseD2Ev,"axG",%progbits,_ZNSt14_Function_baseD5Ev,comdat
 1287              		.align	1
 1288              		.weak	_ZNSt14_Function_baseD2Ev
 1289              		.syntax unified
 1290              		.code	16
 1291              		.thumb_func
 1292              		.fpu softvfp
 1294              	_ZNSt14_Function_baseD2Ev:
 1295              	.LFB2471:
 1296              		.file 10 "/home/users/aag/code/gcc-arm-none-eabi-7-2018-q2-update/arm-none-eabi/include/c++/7.3.1/
   1:/home/users/aag/code/gcc-arm-none-eabi-7-2018-q2-update/arm-none-eabi/include/c++/7.3.1/bits/std_function.h **** // Implementation of std::function -*- C++ -*-
   2:/home/users/aag/code/gcc-arm-none-eabi-7-2018-q2-update/arm-none-eabi/include/c++/7.3.1/bits/std_function.h **** 
   3:/home/users/aag/code/gcc-arm-none-eabi-7-2018-q2-update/arm-none-eabi/include/c++/7.3.1/bits/std_function.h **** // Copyright (C) 2004-2017 Free Software Foundation, Inc.
   4:/home/users/aag/code/gcc-arm-none-eabi-7-2018-q2-update/arm-none-eabi/include/c++/7.3.1/bits/std_function.h **** //
   5:/home/users/aag/code/gcc-arm-none-eabi-7-2018-q2-update/arm-none-eabi/include/c++/7.3.1/bits/std_function.h **** // This file is part of the GNU ISO C++ Library.  This library is free
   6:/home/users/aag/code/gcc-arm-none-eabi-7-2018-q2-update/arm-none-eabi/include/c++/7.3.1/bits/std_function.h **** // software; you can redistribute it and/or modify it under the
   7:/home/users/aag/code/gcc-arm-none-eabi-7-2018-q2-update/arm-none-eabi/include/c++/7.3.1/bits/std_function.h **** // terms of the GNU General Public License as published by the
   8:/home/users/aag/code/gcc-arm-none-eabi-7-2018-q2-update/arm-none-eabi/include/c++/7.3.1/bits/std_function.h **** // Free Software Foundation; either version 3, or (at your option)
   9:/home/users/aag/code/gcc-arm-none-eabi-7-2018-q2-update/arm-none-eabi/include/c++/7.3.1/bits/std_function.h **** // any later version.
  10:/home/users/aag/code/gcc-arm-none-eabi-7-2018-q2-update/arm-none-eabi/include/c++/7.3.1/bits/std_function.h **** 
  11:/home/users/aag/code/gcc-arm-none-eabi-7-2018-q2-update/arm-none-eabi/include/c++/7.3.1/bits/std_function.h **** // This library is distributed in the hope that it will be useful,
  12:/home/users/aag/code/gcc-arm-none-eabi-7-2018-q2-update/arm-none-eabi/include/c++/7.3.1/bits/std_function.h **** // but WITHOUT ANY WARRANTY; without even the implied warranty of
  13:/home/users/aag/code/gcc-arm-none-eabi-7-2018-q2-update/arm-none-eabi/include/c++/7.3.1/bits/std_function.h **** // MERCHANTABILITY or FITNESS FOR A PARTICULAR PURPOSE.  See the
  14:/home/users/aag/code/gcc-arm-none-eabi-7-2018-q2-update/arm-none-eabi/include/c++/7.3.1/bits/std_function.h **** // GNU General Public License for more details.
  15:/home/users/aag/code/gcc-arm-none-eabi-7-2018-q2-update/arm-none-eabi/include/c++/7.3.1/bits/std_function.h **** 
  16:/home/users/aag/code/gcc-arm-none-eabi-7-2018-q2-update/arm-none-eabi/include/c++/7.3.1/bits/std_function.h **** // Under Section 7 of GPL version 3, you are granted additional
  17:/home/users/aag/code/gcc-arm-none-eabi-7-2018-q2-update/arm-none-eabi/include/c++/7.3.1/bits/std_function.h **** // permissions described in the GCC Runtime Library Exception, version
  18:/home/users/aag/code/gcc-arm-none-eabi-7-2018-q2-update/arm-none-eabi/include/c++/7.3.1/bits/std_function.h **** // 3.1, as published by the Free Software Foundation.
  19:/home/users/aag/code/gcc-arm-none-eabi-7-2018-q2-update/arm-none-eabi/include/c++/7.3.1/bits/std_function.h **** 
  20:/home/users/aag/code/gcc-arm-none-eabi-7-2018-q2-update/arm-none-eabi/include/c++/7.3.1/bits/std_function.h **** // You should have received a copy of the GNU General Public License and
  21:/home/users/aag/code/gcc-arm-none-eabi-7-2018-q2-update/arm-none-eabi/include/c++/7.3.1/bits/std_function.h **** // a copy of the GCC Runtime Library Exception along with this program;
  22:/home/users/aag/code/gcc-arm-none-eabi-7-2018-q2-update/arm-none-eabi/include/c++/7.3.1/bits/std_function.h **** // see the files COPYING3 and COPYING.RUNTIME respectively.  If not, see
  23:/home/users/aag/code/gcc-arm-none-eabi-7-2018-q2-update/arm-none-eabi/include/c++/7.3.1/bits/std_function.h **** // <http://www.gnu.org/licenses/>.
  24:/home/users/aag/code/gcc-arm-none-eabi-7-2018-q2-update/arm-none-eabi/include/c++/7.3.1/bits/std_function.h **** 
  25:/home/users/aag/code/gcc-arm-none-eabi-7-2018-q2-update/arm-none-eabi/include/c++/7.3.1/bits/std_function.h **** /** @file include/bits/function.h
  26:/home/users/aag/code/gcc-arm-none-eabi-7-2018-q2-update/arm-none-eabi/include/c++/7.3.1/bits/std_function.h ****  *  This is an internal header file, included by other library headers.
  27:/home/users/aag/code/gcc-arm-none-eabi-7-2018-q2-update/arm-none-eabi/include/c++/7.3.1/bits/std_function.h ****  *  Do not attempt to use it directly. @headername{functional}
  28:/home/users/aag/code/gcc-arm-none-eabi-7-2018-q2-update/arm-none-eabi/include/c++/7.3.1/bits/std_function.h ****  */
  29:/home/users/aag/code/gcc-arm-none-eabi-7-2018-q2-update/arm-none-eabi/include/c++/7.3.1/bits/std_function.h **** 
  30:/home/users/aag/code/gcc-arm-none-eabi-7-2018-q2-update/arm-none-eabi/include/c++/7.3.1/bits/std_function.h **** #ifndef _GLIBCXX_STD_FUNCTION_H
  31:/home/users/aag/code/gcc-arm-none-eabi-7-2018-q2-update/arm-none-eabi/include/c++/7.3.1/bits/std_function.h **** #define _GLIBCXX_STD_FUNCTION_H 1
  32:/home/users/aag/code/gcc-arm-none-eabi-7-2018-q2-update/arm-none-eabi/include/c++/7.3.1/bits/std_function.h **** 
  33:/home/users/aag/code/gcc-arm-none-eabi-7-2018-q2-update/arm-none-eabi/include/c++/7.3.1/bits/std_function.h **** #pragma GCC system_header
  34:/home/users/aag/code/gcc-arm-none-eabi-7-2018-q2-update/arm-none-eabi/include/c++/7.3.1/bits/std_function.h **** 
  35:/home/users/aag/code/gcc-arm-none-eabi-7-2018-q2-update/arm-none-eabi/include/c++/7.3.1/bits/std_function.h **** #if __cplusplus < 201103L
  36:/home/users/aag/code/gcc-arm-none-eabi-7-2018-q2-update/arm-none-eabi/include/c++/7.3.1/bits/std_function.h **** # include <bits/c++0x_warning.h>
ARM GAS  /tmp/ccsVPAmO.s 			page 56


  37:/home/users/aag/code/gcc-arm-none-eabi-7-2018-q2-update/arm-none-eabi/include/c++/7.3.1/bits/std_function.h **** #else
  38:/home/users/aag/code/gcc-arm-none-eabi-7-2018-q2-update/arm-none-eabi/include/c++/7.3.1/bits/std_function.h **** 
  39:/home/users/aag/code/gcc-arm-none-eabi-7-2018-q2-update/arm-none-eabi/include/c++/7.3.1/bits/std_function.h **** #if __cpp_rtti
  40:/home/users/aag/code/gcc-arm-none-eabi-7-2018-q2-update/arm-none-eabi/include/c++/7.3.1/bits/std_function.h **** # include <typeinfo>
  41:/home/users/aag/code/gcc-arm-none-eabi-7-2018-q2-update/arm-none-eabi/include/c++/7.3.1/bits/std_function.h **** #endif
  42:/home/users/aag/code/gcc-arm-none-eabi-7-2018-q2-update/arm-none-eabi/include/c++/7.3.1/bits/std_function.h **** #include <bits/stl_function.h>
  43:/home/users/aag/code/gcc-arm-none-eabi-7-2018-q2-update/arm-none-eabi/include/c++/7.3.1/bits/std_function.h **** #include <bits/invoke.h>
  44:/home/users/aag/code/gcc-arm-none-eabi-7-2018-q2-update/arm-none-eabi/include/c++/7.3.1/bits/std_function.h **** #include <bits/refwrap.h>
  45:/home/users/aag/code/gcc-arm-none-eabi-7-2018-q2-update/arm-none-eabi/include/c++/7.3.1/bits/std_function.h **** #include <bits/functexcept.h>
  46:/home/users/aag/code/gcc-arm-none-eabi-7-2018-q2-update/arm-none-eabi/include/c++/7.3.1/bits/std_function.h **** 
  47:/home/users/aag/code/gcc-arm-none-eabi-7-2018-q2-update/arm-none-eabi/include/c++/7.3.1/bits/std_function.h **** namespace std _GLIBCXX_VISIBILITY(default)
  48:/home/users/aag/code/gcc-arm-none-eabi-7-2018-q2-update/arm-none-eabi/include/c++/7.3.1/bits/std_function.h **** {
  49:/home/users/aag/code/gcc-arm-none-eabi-7-2018-q2-update/arm-none-eabi/include/c++/7.3.1/bits/std_function.h **** _GLIBCXX_BEGIN_NAMESPACE_VERSION
  50:/home/users/aag/code/gcc-arm-none-eabi-7-2018-q2-update/arm-none-eabi/include/c++/7.3.1/bits/std_function.h **** 
  51:/home/users/aag/code/gcc-arm-none-eabi-7-2018-q2-update/arm-none-eabi/include/c++/7.3.1/bits/std_function.h ****   /**
  52:/home/users/aag/code/gcc-arm-none-eabi-7-2018-q2-update/arm-none-eabi/include/c++/7.3.1/bits/std_function.h ****    * Derives from @c unary_function or @c binary_function, or perhaps
  53:/home/users/aag/code/gcc-arm-none-eabi-7-2018-q2-update/arm-none-eabi/include/c++/7.3.1/bits/std_function.h ****    * nothing, depending on the number of arguments provided. The
  54:/home/users/aag/code/gcc-arm-none-eabi-7-2018-q2-update/arm-none-eabi/include/c++/7.3.1/bits/std_function.h ****    * primary template is the basis case, which derives nothing.
  55:/home/users/aag/code/gcc-arm-none-eabi-7-2018-q2-update/arm-none-eabi/include/c++/7.3.1/bits/std_function.h ****    */
  56:/home/users/aag/code/gcc-arm-none-eabi-7-2018-q2-update/arm-none-eabi/include/c++/7.3.1/bits/std_function.h ****   template<typename _Res, typename... _ArgTypes>
  57:/home/users/aag/code/gcc-arm-none-eabi-7-2018-q2-update/arm-none-eabi/include/c++/7.3.1/bits/std_function.h ****     struct _Maybe_unary_or_binary_function { };
  58:/home/users/aag/code/gcc-arm-none-eabi-7-2018-q2-update/arm-none-eabi/include/c++/7.3.1/bits/std_function.h **** 
  59:/home/users/aag/code/gcc-arm-none-eabi-7-2018-q2-update/arm-none-eabi/include/c++/7.3.1/bits/std_function.h ****   /// Derives from @c unary_function, as appropriate.
  60:/home/users/aag/code/gcc-arm-none-eabi-7-2018-q2-update/arm-none-eabi/include/c++/7.3.1/bits/std_function.h ****   template<typename _Res, typename _T1>
  61:/home/users/aag/code/gcc-arm-none-eabi-7-2018-q2-update/arm-none-eabi/include/c++/7.3.1/bits/std_function.h ****     struct _Maybe_unary_or_binary_function<_Res, _T1>
  62:/home/users/aag/code/gcc-arm-none-eabi-7-2018-q2-update/arm-none-eabi/include/c++/7.3.1/bits/std_function.h ****     : std::unary_function<_T1, _Res> { };
  63:/home/users/aag/code/gcc-arm-none-eabi-7-2018-q2-update/arm-none-eabi/include/c++/7.3.1/bits/std_function.h **** 
  64:/home/users/aag/code/gcc-arm-none-eabi-7-2018-q2-update/arm-none-eabi/include/c++/7.3.1/bits/std_function.h ****   /// Derives from @c binary_function, as appropriate.
  65:/home/users/aag/code/gcc-arm-none-eabi-7-2018-q2-update/arm-none-eabi/include/c++/7.3.1/bits/std_function.h ****   template<typename _Res, typename _T1, typename _T2>
  66:/home/users/aag/code/gcc-arm-none-eabi-7-2018-q2-update/arm-none-eabi/include/c++/7.3.1/bits/std_function.h ****     struct _Maybe_unary_or_binary_function<_Res, _T1, _T2>
  67:/home/users/aag/code/gcc-arm-none-eabi-7-2018-q2-update/arm-none-eabi/include/c++/7.3.1/bits/std_function.h ****     : std::binary_function<_T1, _T2, _Res> { };
  68:/home/users/aag/code/gcc-arm-none-eabi-7-2018-q2-update/arm-none-eabi/include/c++/7.3.1/bits/std_function.h **** 
  69:/home/users/aag/code/gcc-arm-none-eabi-7-2018-q2-update/arm-none-eabi/include/c++/7.3.1/bits/std_function.h **** 
  70:/home/users/aag/code/gcc-arm-none-eabi-7-2018-q2-update/arm-none-eabi/include/c++/7.3.1/bits/std_function.h ****   /**
  71:/home/users/aag/code/gcc-arm-none-eabi-7-2018-q2-update/arm-none-eabi/include/c++/7.3.1/bits/std_function.h ****    *  @brief Exception class thrown when class template function's
  72:/home/users/aag/code/gcc-arm-none-eabi-7-2018-q2-update/arm-none-eabi/include/c++/7.3.1/bits/std_function.h ****    *  operator() is called with an empty target.
  73:/home/users/aag/code/gcc-arm-none-eabi-7-2018-q2-update/arm-none-eabi/include/c++/7.3.1/bits/std_function.h ****    *  @ingroup exceptions
  74:/home/users/aag/code/gcc-arm-none-eabi-7-2018-q2-update/arm-none-eabi/include/c++/7.3.1/bits/std_function.h ****    */
  75:/home/users/aag/code/gcc-arm-none-eabi-7-2018-q2-update/arm-none-eabi/include/c++/7.3.1/bits/std_function.h ****   class bad_function_call : public std::exception
  76:/home/users/aag/code/gcc-arm-none-eabi-7-2018-q2-update/arm-none-eabi/include/c++/7.3.1/bits/std_function.h ****   {
  77:/home/users/aag/code/gcc-arm-none-eabi-7-2018-q2-update/arm-none-eabi/include/c++/7.3.1/bits/std_function.h ****   public:
  78:/home/users/aag/code/gcc-arm-none-eabi-7-2018-q2-update/arm-none-eabi/include/c++/7.3.1/bits/std_function.h ****     virtual ~bad_function_call() noexcept;
  79:/home/users/aag/code/gcc-arm-none-eabi-7-2018-q2-update/arm-none-eabi/include/c++/7.3.1/bits/std_function.h **** 
  80:/home/users/aag/code/gcc-arm-none-eabi-7-2018-q2-update/arm-none-eabi/include/c++/7.3.1/bits/std_function.h ****     const char* what() const noexcept;
  81:/home/users/aag/code/gcc-arm-none-eabi-7-2018-q2-update/arm-none-eabi/include/c++/7.3.1/bits/std_function.h ****   };
  82:/home/users/aag/code/gcc-arm-none-eabi-7-2018-q2-update/arm-none-eabi/include/c++/7.3.1/bits/std_function.h **** 
  83:/home/users/aag/code/gcc-arm-none-eabi-7-2018-q2-update/arm-none-eabi/include/c++/7.3.1/bits/std_function.h ****   /**
  84:/home/users/aag/code/gcc-arm-none-eabi-7-2018-q2-update/arm-none-eabi/include/c++/7.3.1/bits/std_function.h ****    *  Trait identifying "location-invariant" types, meaning that the
  85:/home/users/aag/code/gcc-arm-none-eabi-7-2018-q2-update/arm-none-eabi/include/c++/7.3.1/bits/std_function.h ****    *  address of the object (or any of its members) will not escape.
  86:/home/users/aag/code/gcc-arm-none-eabi-7-2018-q2-update/arm-none-eabi/include/c++/7.3.1/bits/std_function.h ****    *  Trivially copyable types are location-invariant and users can
  87:/home/users/aag/code/gcc-arm-none-eabi-7-2018-q2-update/arm-none-eabi/include/c++/7.3.1/bits/std_function.h ****    *  specialize this trait for other types.
  88:/home/users/aag/code/gcc-arm-none-eabi-7-2018-q2-update/arm-none-eabi/include/c++/7.3.1/bits/std_function.h ****    */
  89:/home/users/aag/code/gcc-arm-none-eabi-7-2018-q2-update/arm-none-eabi/include/c++/7.3.1/bits/std_function.h ****   template<typename _Tp>
  90:/home/users/aag/code/gcc-arm-none-eabi-7-2018-q2-update/arm-none-eabi/include/c++/7.3.1/bits/std_function.h ****     struct __is_location_invariant
  91:/home/users/aag/code/gcc-arm-none-eabi-7-2018-q2-update/arm-none-eabi/include/c++/7.3.1/bits/std_function.h ****     : is_trivially_copyable<_Tp>::type
  92:/home/users/aag/code/gcc-arm-none-eabi-7-2018-q2-update/arm-none-eabi/include/c++/7.3.1/bits/std_function.h ****     { };
  93:/home/users/aag/code/gcc-arm-none-eabi-7-2018-q2-update/arm-none-eabi/include/c++/7.3.1/bits/std_function.h **** 
ARM GAS  /tmp/ccsVPAmO.s 			page 57


  94:/home/users/aag/code/gcc-arm-none-eabi-7-2018-q2-update/arm-none-eabi/include/c++/7.3.1/bits/std_function.h ****   class _Undefined_class;
  95:/home/users/aag/code/gcc-arm-none-eabi-7-2018-q2-update/arm-none-eabi/include/c++/7.3.1/bits/std_function.h **** 
  96:/home/users/aag/code/gcc-arm-none-eabi-7-2018-q2-update/arm-none-eabi/include/c++/7.3.1/bits/std_function.h ****   union _Nocopy_types
  97:/home/users/aag/code/gcc-arm-none-eabi-7-2018-q2-update/arm-none-eabi/include/c++/7.3.1/bits/std_function.h ****   {
  98:/home/users/aag/code/gcc-arm-none-eabi-7-2018-q2-update/arm-none-eabi/include/c++/7.3.1/bits/std_function.h ****     void*       _M_object;
  99:/home/users/aag/code/gcc-arm-none-eabi-7-2018-q2-update/arm-none-eabi/include/c++/7.3.1/bits/std_function.h ****     const void* _M_const_object;
 100:/home/users/aag/code/gcc-arm-none-eabi-7-2018-q2-update/arm-none-eabi/include/c++/7.3.1/bits/std_function.h ****     void (*_M_function_pointer)();
 101:/home/users/aag/code/gcc-arm-none-eabi-7-2018-q2-update/arm-none-eabi/include/c++/7.3.1/bits/std_function.h ****     void (_Undefined_class::*_M_member_pointer)();
 102:/home/users/aag/code/gcc-arm-none-eabi-7-2018-q2-update/arm-none-eabi/include/c++/7.3.1/bits/std_function.h ****   };
 103:/home/users/aag/code/gcc-arm-none-eabi-7-2018-q2-update/arm-none-eabi/include/c++/7.3.1/bits/std_function.h **** 
 104:/home/users/aag/code/gcc-arm-none-eabi-7-2018-q2-update/arm-none-eabi/include/c++/7.3.1/bits/std_function.h ****   union [[gnu::may_alias]] _Any_data
 105:/home/users/aag/code/gcc-arm-none-eabi-7-2018-q2-update/arm-none-eabi/include/c++/7.3.1/bits/std_function.h ****   {
 106:/home/users/aag/code/gcc-arm-none-eabi-7-2018-q2-update/arm-none-eabi/include/c++/7.3.1/bits/std_function.h ****     void*       _M_access()       { return &_M_pod_data[0]; }
 107:/home/users/aag/code/gcc-arm-none-eabi-7-2018-q2-update/arm-none-eabi/include/c++/7.3.1/bits/std_function.h ****     const void* _M_access() const { return &_M_pod_data[0]; }
 108:/home/users/aag/code/gcc-arm-none-eabi-7-2018-q2-update/arm-none-eabi/include/c++/7.3.1/bits/std_function.h **** 
 109:/home/users/aag/code/gcc-arm-none-eabi-7-2018-q2-update/arm-none-eabi/include/c++/7.3.1/bits/std_function.h ****     template<typename _Tp>
 110:/home/users/aag/code/gcc-arm-none-eabi-7-2018-q2-update/arm-none-eabi/include/c++/7.3.1/bits/std_function.h ****       _Tp&
 111:/home/users/aag/code/gcc-arm-none-eabi-7-2018-q2-update/arm-none-eabi/include/c++/7.3.1/bits/std_function.h ****       _M_access()
 112:/home/users/aag/code/gcc-arm-none-eabi-7-2018-q2-update/arm-none-eabi/include/c++/7.3.1/bits/std_function.h ****       { return *static_cast<_Tp*>(_M_access()); }
 113:/home/users/aag/code/gcc-arm-none-eabi-7-2018-q2-update/arm-none-eabi/include/c++/7.3.1/bits/std_function.h **** 
 114:/home/users/aag/code/gcc-arm-none-eabi-7-2018-q2-update/arm-none-eabi/include/c++/7.3.1/bits/std_function.h ****     template<typename _Tp>
 115:/home/users/aag/code/gcc-arm-none-eabi-7-2018-q2-update/arm-none-eabi/include/c++/7.3.1/bits/std_function.h ****       const _Tp&
 116:/home/users/aag/code/gcc-arm-none-eabi-7-2018-q2-update/arm-none-eabi/include/c++/7.3.1/bits/std_function.h ****       _M_access() const
 117:/home/users/aag/code/gcc-arm-none-eabi-7-2018-q2-update/arm-none-eabi/include/c++/7.3.1/bits/std_function.h ****       { return *static_cast<const _Tp*>(_M_access()); }
 118:/home/users/aag/code/gcc-arm-none-eabi-7-2018-q2-update/arm-none-eabi/include/c++/7.3.1/bits/std_function.h **** 
 119:/home/users/aag/code/gcc-arm-none-eabi-7-2018-q2-update/arm-none-eabi/include/c++/7.3.1/bits/std_function.h ****     _Nocopy_types _M_unused;
 120:/home/users/aag/code/gcc-arm-none-eabi-7-2018-q2-update/arm-none-eabi/include/c++/7.3.1/bits/std_function.h ****     char _M_pod_data[sizeof(_Nocopy_types)];
 121:/home/users/aag/code/gcc-arm-none-eabi-7-2018-q2-update/arm-none-eabi/include/c++/7.3.1/bits/std_function.h ****   };
 122:/home/users/aag/code/gcc-arm-none-eabi-7-2018-q2-update/arm-none-eabi/include/c++/7.3.1/bits/std_function.h **** 
 123:/home/users/aag/code/gcc-arm-none-eabi-7-2018-q2-update/arm-none-eabi/include/c++/7.3.1/bits/std_function.h ****   enum _Manager_operation
 124:/home/users/aag/code/gcc-arm-none-eabi-7-2018-q2-update/arm-none-eabi/include/c++/7.3.1/bits/std_function.h ****   {
 125:/home/users/aag/code/gcc-arm-none-eabi-7-2018-q2-update/arm-none-eabi/include/c++/7.3.1/bits/std_function.h ****     __get_type_info,
 126:/home/users/aag/code/gcc-arm-none-eabi-7-2018-q2-update/arm-none-eabi/include/c++/7.3.1/bits/std_function.h ****     __get_functor_ptr,
 127:/home/users/aag/code/gcc-arm-none-eabi-7-2018-q2-update/arm-none-eabi/include/c++/7.3.1/bits/std_function.h ****     __clone_functor,
 128:/home/users/aag/code/gcc-arm-none-eabi-7-2018-q2-update/arm-none-eabi/include/c++/7.3.1/bits/std_function.h ****     __destroy_functor
 129:/home/users/aag/code/gcc-arm-none-eabi-7-2018-q2-update/arm-none-eabi/include/c++/7.3.1/bits/std_function.h ****   };
 130:/home/users/aag/code/gcc-arm-none-eabi-7-2018-q2-update/arm-none-eabi/include/c++/7.3.1/bits/std_function.h **** 
 131:/home/users/aag/code/gcc-arm-none-eabi-7-2018-q2-update/arm-none-eabi/include/c++/7.3.1/bits/std_function.h ****   // Simple type wrapper that helps avoid annoying const problems
 132:/home/users/aag/code/gcc-arm-none-eabi-7-2018-q2-update/arm-none-eabi/include/c++/7.3.1/bits/std_function.h ****   // when casting between void pointers and pointers-to-pointers.
 133:/home/users/aag/code/gcc-arm-none-eabi-7-2018-q2-update/arm-none-eabi/include/c++/7.3.1/bits/std_function.h ****   template<typename _Tp>
 134:/home/users/aag/code/gcc-arm-none-eabi-7-2018-q2-update/arm-none-eabi/include/c++/7.3.1/bits/std_function.h ****     struct _Simple_type_wrapper
 135:/home/users/aag/code/gcc-arm-none-eabi-7-2018-q2-update/arm-none-eabi/include/c++/7.3.1/bits/std_function.h ****     {
 136:/home/users/aag/code/gcc-arm-none-eabi-7-2018-q2-update/arm-none-eabi/include/c++/7.3.1/bits/std_function.h ****       _Simple_type_wrapper(_Tp __value) : __value(__value) { }
 137:/home/users/aag/code/gcc-arm-none-eabi-7-2018-q2-update/arm-none-eabi/include/c++/7.3.1/bits/std_function.h **** 
 138:/home/users/aag/code/gcc-arm-none-eabi-7-2018-q2-update/arm-none-eabi/include/c++/7.3.1/bits/std_function.h ****       _Tp __value;
 139:/home/users/aag/code/gcc-arm-none-eabi-7-2018-q2-update/arm-none-eabi/include/c++/7.3.1/bits/std_function.h ****     };
 140:/home/users/aag/code/gcc-arm-none-eabi-7-2018-q2-update/arm-none-eabi/include/c++/7.3.1/bits/std_function.h **** 
 141:/home/users/aag/code/gcc-arm-none-eabi-7-2018-q2-update/arm-none-eabi/include/c++/7.3.1/bits/std_function.h ****   template<typename _Tp>
 142:/home/users/aag/code/gcc-arm-none-eabi-7-2018-q2-update/arm-none-eabi/include/c++/7.3.1/bits/std_function.h ****     struct __is_location_invariant<_Simple_type_wrapper<_Tp> >
 143:/home/users/aag/code/gcc-arm-none-eabi-7-2018-q2-update/arm-none-eabi/include/c++/7.3.1/bits/std_function.h ****     : __is_location_invariant<_Tp>
 144:/home/users/aag/code/gcc-arm-none-eabi-7-2018-q2-update/arm-none-eabi/include/c++/7.3.1/bits/std_function.h ****     { };
 145:/home/users/aag/code/gcc-arm-none-eabi-7-2018-q2-update/arm-none-eabi/include/c++/7.3.1/bits/std_function.h **** 
 146:/home/users/aag/code/gcc-arm-none-eabi-7-2018-q2-update/arm-none-eabi/include/c++/7.3.1/bits/std_function.h ****   template<typename _Signature>
 147:/home/users/aag/code/gcc-arm-none-eabi-7-2018-q2-update/arm-none-eabi/include/c++/7.3.1/bits/std_function.h ****     class function;
 148:/home/users/aag/code/gcc-arm-none-eabi-7-2018-q2-update/arm-none-eabi/include/c++/7.3.1/bits/std_function.h **** 
 149:/home/users/aag/code/gcc-arm-none-eabi-7-2018-q2-update/arm-none-eabi/include/c++/7.3.1/bits/std_function.h ****   /// Base class of all polymorphic function object wrappers.
 150:/home/users/aag/code/gcc-arm-none-eabi-7-2018-q2-update/arm-none-eabi/include/c++/7.3.1/bits/std_function.h ****   class _Function_base
ARM GAS  /tmp/ccsVPAmO.s 			page 58


 151:/home/users/aag/code/gcc-arm-none-eabi-7-2018-q2-update/arm-none-eabi/include/c++/7.3.1/bits/std_function.h ****   {
 152:/home/users/aag/code/gcc-arm-none-eabi-7-2018-q2-update/arm-none-eabi/include/c++/7.3.1/bits/std_function.h ****   public:
 153:/home/users/aag/code/gcc-arm-none-eabi-7-2018-q2-update/arm-none-eabi/include/c++/7.3.1/bits/std_function.h ****     static const std::size_t _M_max_size = sizeof(_Nocopy_types);
 154:/home/users/aag/code/gcc-arm-none-eabi-7-2018-q2-update/arm-none-eabi/include/c++/7.3.1/bits/std_function.h ****     static const std::size_t _M_max_align = __alignof__(_Nocopy_types);
 155:/home/users/aag/code/gcc-arm-none-eabi-7-2018-q2-update/arm-none-eabi/include/c++/7.3.1/bits/std_function.h **** 
 156:/home/users/aag/code/gcc-arm-none-eabi-7-2018-q2-update/arm-none-eabi/include/c++/7.3.1/bits/std_function.h ****     template<typename _Functor>
 157:/home/users/aag/code/gcc-arm-none-eabi-7-2018-q2-update/arm-none-eabi/include/c++/7.3.1/bits/std_function.h ****       class _Base_manager
 158:/home/users/aag/code/gcc-arm-none-eabi-7-2018-q2-update/arm-none-eabi/include/c++/7.3.1/bits/std_function.h ****       {
 159:/home/users/aag/code/gcc-arm-none-eabi-7-2018-q2-update/arm-none-eabi/include/c++/7.3.1/bits/std_function.h ****       protected:
 160:/home/users/aag/code/gcc-arm-none-eabi-7-2018-q2-update/arm-none-eabi/include/c++/7.3.1/bits/std_function.h **** 	static const bool __stored_locally =
 161:/home/users/aag/code/gcc-arm-none-eabi-7-2018-q2-update/arm-none-eabi/include/c++/7.3.1/bits/std_function.h **** 	(__is_location_invariant<_Functor>::value
 162:/home/users/aag/code/gcc-arm-none-eabi-7-2018-q2-update/arm-none-eabi/include/c++/7.3.1/bits/std_function.h **** 	 && sizeof(_Functor) <= _M_max_size
 163:/home/users/aag/code/gcc-arm-none-eabi-7-2018-q2-update/arm-none-eabi/include/c++/7.3.1/bits/std_function.h **** 	 && __alignof__(_Functor) <= _M_max_align
 164:/home/users/aag/code/gcc-arm-none-eabi-7-2018-q2-update/arm-none-eabi/include/c++/7.3.1/bits/std_function.h **** 	 && (_M_max_align % __alignof__(_Functor) == 0));
 165:/home/users/aag/code/gcc-arm-none-eabi-7-2018-q2-update/arm-none-eabi/include/c++/7.3.1/bits/std_function.h **** 
 166:/home/users/aag/code/gcc-arm-none-eabi-7-2018-q2-update/arm-none-eabi/include/c++/7.3.1/bits/std_function.h **** 	typedef integral_constant<bool, __stored_locally> _Local_storage;
 167:/home/users/aag/code/gcc-arm-none-eabi-7-2018-q2-update/arm-none-eabi/include/c++/7.3.1/bits/std_function.h **** 
 168:/home/users/aag/code/gcc-arm-none-eabi-7-2018-q2-update/arm-none-eabi/include/c++/7.3.1/bits/std_function.h **** 	// Retrieve a pointer to the function object
 169:/home/users/aag/code/gcc-arm-none-eabi-7-2018-q2-update/arm-none-eabi/include/c++/7.3.1/bits/std_function.h **** 	static _Functor*
 170:/home/users/aag/code/gcc-arm-none-eabi-7-2018-q2-update/arm-none-eabi/include/c++/7.3.1/bits/std_function.h **** 	_M_get_pointer(const _Any_data& __source)
 171:/home/users/aag/code/gcc-arm-none-eabi-7-2018-q2-update/arm-none-eabi/include/c++/7.3.1/bits/std_function.h **** 	{
 172:/home/users/aag/code/gcc-arm-none-eabi-7-2018-q2-update/arm-none-eabi/include/c++/7.3.1/bits/std_function.h **** 	  const _Functor* __ptr =
 173:/home/users/aag/code/gcc-arm-none-eabi-7-2018-q2-update/arm-none-eabi/include/c++/7.3.1/bits/std_function.h **** 	    __stored_locally? std::__addressof(__source._M_access<_Functor>())
 174:/home/users/aag/code/gcc-arm-none-eabi-7-2018-q2-update/arm-none-eabi/include/c++/7.3.1/bits/std_function.h **** 	    /* have stored a pointer */ : __source._M_access<_Functor*>();
 175:/home/users/aag/code/gcc-arm-none-eabi-7-2018-q2-update/arm-none-eabi/include/c++/7.3.1/bits/std_function.h **** 	  return const_cast<_Functor*>(__ptr);
 176:/home/users/aag/code/gcc-arm-none-eabi-7-2018-q2-update/arm-none-eabi/include/c++/7.3.1/bits/std_function.h **** 	}
 177:/home/users/aag/code/gcc-arm-none-eabi-7-2018-q2-update/arm-none-eabi/include/c++/7.3.1/bits/std_function.h **** 
 178:/home/users/aag/code/gcc-arm-none-eabi-7-2018-q2-update/arm-none-eabi/include/c++/7.3.1/bits/std_function.h **** 	// Clone a location-invariant function object that fits within
 179:/home/users/aag/code/gcc-arm-none-eabi-7-2018-q2-update/arm-none-eabi/include/c++/7.3.1/bits/std_function.h **** 	// an _Any_data structure.
 180:/home/users/aag/code/gcc-arm-none-eabi-7-2018-q2-update/arm-none-eabi/include/c++/7.3.1/bits/std_function.h **** 	static void
 181:/home/users/aag/code/gcc-arm-none-eabi-7-2018-q2-update/arm-none-eabi/include/c++/7.3.1/bits/std_function.h **** 	_M_clone(_Any_data& __dest, const _Any_data& __source, true_type)
 182:/home/users/aag/code/gcc-arm-none-eabi-7-2018-q2-update/arm-none-eabi/include/c++/7.3.1/bits/std_function.h **** 	{
 183:/home/users/aag/code/gcc-arm-none-eabi-7-2018-q2-update/arm-none-eabi/include/c++/7.3.1/bits/std_function.h **** 	  ::new (__dest._M_access()) _Functor(__source._M_access<_Functor>());
 184:/home/users/aag/code/gcc-arm-none-eabi-7-2018-q2-update/arm-none-eabi/include/c++/7.3.1/bits/std_function.h **** 	}
 185:/home/users/aag/code/gcc-arm-none-eabi-7-2018-q2-update/arm-none-eabi/include/c++/7.3.1/bits/std_function.h **** 
 186:/home/users/aag/code/gcc-arm-none-eabi-7-2018-q2-update/arm-none-eabi/include/c++/7.3.1/bits/std_function.h **** 	// Clone a function object that is not location-invariant or
 187:/home/users/aag/code/gcc-arm-none-eabi-7-2018-q2-update/arm-none-eabi/include/c++/7.3.1/bits/std_function.h **** 	// that cannot fit into an _Any_data structure.
 188:/home/users/aag/code/gcc-arm-none-eabi-7-2018-q2-update/arm-none-eabi/include/c++/7.3.1/bits/std_function.h **** 	static void
 189:/home/users/aag/code/gcc-arm-none-eabi-7-2018-q2-update/arm-none-eabi/include/c++/7.3.1/bits/std_function.h **** 	_M_clone(_Any_data& __dest, const _Any_data& __source, false_type)
 190:/home/users/aag/code/gcc-arm-none-eabi-7-2018-q2-update/arm-none-eabi/include/c++/7.3.1/bits/std_function.h **** 	{
 191:/home/users/aag/code/gcc-arm-none-eabi-7-2018-q2-update/arm-none-eabi/include/c++/7.3.1/bits/std_function.h **** 	  __dest._M_access<_Functor*>() =
 192:/home/users/aag/code/gcc-arm-none-eabi-7-2018-q2-update/arm-none-eabi/include/c++/7.3.1/bits/std_function.h **** 	    new _Functor(*__source._M_access<_Functor*>());
 193:/home/users/aag/code/gcc-arm-none-eabi-7-2018-q2-update/arm-none-eabi/include/c++/7.3.1/bits/std_function.h **** 	}
 194:/home/users/aag/code/gcc-arm-none-eabi-7-2018-q2-update/arm-none-eabi/include/c++/7.3.1/bits/std_function.h **** 
 195:/home/users/aag/code/gcc-arm-none-eabi-7-2018-q2-update/arm-none-eabi/include/c++/7.3.1/bits/std_function.h **** 	// Destroying a location-invariant object may still require
 196:/home/users/aag/code/gcc-arm-none-eabi-7-2018-q2-update/arm-none-eabi/include/c++/7.3.1/bits/std_function.h **** 	// destruction.
 197:/home/users/aag/code/gcc-arm-none-eabi-7-2018-q2-update/arm-none-eabi/include/c++/7.3.1/bits/std_function.h **** 	static void
 198:/home/users/aag/code/gcc-arm-none-eabi-7-2018-q2-update/arm-none-eabi/include/c++/7.3.1/bits/std_function.h **** 	_M_destroy(_Any_data& __victim, true_type)
 199:/home/users/aag/code/gcc-arm-none-eabi-7-2018-q2-update/arm-none-eabi/include/c++/7.3.1/bits/std_function.h **** 	{
 200:/home/users/aag/code/gcc-arm-none-eabi-7-2018-q2-update/arm-none-eabi/include/c++/7.3.1/bits/std_function.h **** 	  __victim._M_access<_Functor>().~_Functor();
 201:/home/users/aag/code/gcc-arm-none-eabi-7-2018-q2-update/arm-none-eabi/include/c++/7.3.1/bits/std_function.h **** 	}
 202:/home/users/aag/code/gcc-arm-none-eabi-7-2018-q2-update/arm-none-eabi/include/c++/7.3.1/bits/std_function.h **** 
 203:/home/users/aag/code/gcc-arm-none-eabi-7-2018-q2-update/arm-none-eabi/include/c++/7.3.1/bits/std_function.h **** 	// Destroying an object located on the heap.
 204:/home/users/aag/code/gcc-arm-none-eabi-7-2018-q2-update/arm-none-eabi/include/c++/7.3.1/bits/std_function.h **** 	static void
 205:/home/users/aag/code/gcc-arm-none-eabi-7-2018-q2-update/arm-none-eabi/include/c++/7.3.1/bits/std_function.h **** 	_M_destroy(_Any_data& __victim, false_type)
 206:/home/users/aag/code/gcc-arm-none-eabi-7-2018-q2-update/arm-none-eabi/include/c++/7.3.1/bits/std_function.h **** 	{
 207:/home/users/aag/code/gcc-arm-none-eabi-7-2018-q2-update/arm-none-eabi/include/c++/7.3.1/bits/std_function.h **** 	  delete __victim._M_access<_Functor*>();
ARM GAS  /tmp/ccsVPAmO.s 			page 59


 208:/home/users/aag/code/gcc-arm-none-eabi-7-2018-q2-update/arm-none-eabi/include/c++/7.3.1/bits/std_function.h **** 	}
 209:/home/users/aag/code/gcc-arm-none-eabi-7-2018-q2-update/arm-none-eabi/include/c++/7.3.1/bits/std_function.h **** 
 210:/home/users/aag/code/gcc-arm-none-eabi-7-2018-q2-update/arm-none-eabi/include/c++/7.3.1/bits/std_function.h ****       public:
 211:/home/users/aag/code/gcc-arm-none-eabi-7-2018-q2-update/arm-none-eabi/include/c++/7.3.1/bits/std_function.h **** 	static bool
 212:/home/users/aag/code/gcc-arm-none-eabi-7-2018-q2-update/arm-none-eabi/include/c++/7.3.1/bits/std_function.h **** 	_M_manager(_Any_data& __dest, const _Any_data& __source,
 213:/home/users/aag/code/gcc-arm-none-eabi-7-2018-q2-update/arm-none-eabi/include/c++/7.3.1/bits/std_function.h **** 		   _Manager_operation __op)
 214:/home/users/aag/code/gcc-arm-none-eabi-7-2018-q2-update/arm-none-eabi/include/c++/7.3.1/bits/std_function.h **** 	{
 215:/home/users/aag/code/gcc-arm-none-eabi-7-2018-q2-update/arm-none-eabi/include/c++/7.3.1/bits/std_function.h **** 	  switch (__op)
 216:/home/users/aag/code/gcc-arm-none-eabi-7-2018-q2-update/arm-none-eabi/include/c++/7.3.1/bits/std_function.h **** 	    {
 217:/home/users/aag/code/gcc-arm-none-eabi-7-2018-q2-update/arm-none-eabi/include/c++/7.3.1/bits/std_function.h **** #if __cpp_rtti
 218:/home/users/aag/code/gcc-arm-none-eabi-7-2018-q2-update/arm-none-eabi/include/c++/7.3.1/bits/std_function.h **** 	    case __get_type_info:
 219:/home/users/aag/code/gcc-arm-none-eabi-7-2018-q2-update/arm-none-eabi/include/c++/7.3.1/bits/std_function.h **** 	      __dest._M_access<const type_info*>() = &typeid(_Functor);
 220:/home/users/aag/code/gcc-arm-none-eabi-7-2018-q2-update/arm-none-eabi/include/c++/7.3.1/bits/std_function.h **** 	      break;
 221:/home/users/aag/code/gcc-arm-none-eabi-7-2018-q2-update/arm-none-eabi/include/c++/7.3.1/bits/std_function.h **** #endif
 222:/home/users/aag/code/gcc-arm-none-eabi-7-2018-q2-update/arm-none-eabi/include/c++/7.3.1/bits/std_function.h **** 	    case __get_functor_ptr:
 223:/home/users/aag/code/gcc-arm-none-eabi-7-2018-q2-update/arm-none-eabi/include/c++/7.3.1/bits/std_function.h **** 	      __dest._M_access<_Functor*>() = _M_get_pointer(__source);
 224:/home/users/aag/code/gcc-arm-none-eabi-7-2018-q2-update/arm-none-eabi/include/c++/7.3.1/bits/std_function.h **** 	      break;
 225:/home/users/aag/code/gcc-arm-none-eabi-7-2018-q2-update/arm-none-eabi/include/c++/7.3.1/bits/std_function.h **** 
 226:/home/users/aag/code/gcc-arm-none-eabi-7-2018-q2-update/arm-none-eabi/include/c++/7.3.1/bits/std_function.h **** 	    case __clone_functor:
 227:/home/users/aag/code/gcc-arm-none-eabi-7-2018-q2-update/arm-none-eabi/include/c++/7.3.1/bits/std_function.h **** 	      _M_clone(__dest, __source, _Local_storage());
 228:/home/users/aag/code/gcc-arm-none-eabi-7-2018-q2-update/arm-none-eabi/include/c++/7.3.1/bits/std_function.h **** 	      break;
 229:/home/users/aag/code/gcc-arm-none-eabi-7-2018-q2-update/arm-none-eabi/include/c++/7.3.1/bits/std_function.h **** 
 230:/home/users/aag/code/gcc-arm-none-eabi-7-2018-q2-update/arm-none-eabi/include/c++/7.3.1/bits/std_function.h **** 	    case __destroy_functor:
 231:/home/users/aag/code/gcc-arm-none-eabi-7-2018-q2-update/arm-none-eabi/include/c++/7.3.1/bits/std_function.h **** 	      _M_destroy(__dest, _Local_storage());
 232:/home/users/aag/code/gcc-arm-none-eabi-7-2018-q2-update/arm-none-eabi/include/c++/7.3.1/bits/std_function.h **** 	      break;
